libinchi.so.0:AddAtom2DA
libinchi.so.0:AddAtom2num
libinchi.so.0:AddBondsPos
libinchi.so.0:AddCGroups2BnStruct
libinchi.so.0:AddCGroups2TCGBnStruct
libinchi.so.0:AddChangedAtHChargeBNS
libinchi.so.0:AddEdgeFlow
libinchi.so.0:AddElementAndCount
libinchi.so.0:AddEndPoint
libinchi.so.0:AddEndPoints
libinchi.so.0:AddExplicitDeletedH
libinchi.so.0:AddMOLfileError
libinchi.so.0:AddNewEdge
libinchi.so.0:AddNodeSet2ToNodeSet1
libinchi.so.0:AddNodesToRadEndpoints
libinchi.so.0:AddOneMsg
libinchi.so.0:AddOrRemoveExplOrImplH
libinchi.so.0:AddProtonAndIsoHBalanceToMobHStruct
libinchi.so.0:AddRadicalToMetal
libinchi.so.0:AddRemIsoProtonsInRestrStruct
libinchi.so.0:AddRemProtonsInRestrStruct
libinchi.so.0:AddRemoveIsoProtonsRestr
libinchi.so.0:AddRemoveProtonsRestr
libinchi.so.0:AddStCapFlow
libinchi.so.0:AddTGroups2BnStruct
libinchi.so.0:AddTGroups2TCGBnStruct
libinchi.so.0:AddToEdgeList
libinchi.so.0:AddXmlEntityRefs
libinchi.so.0:AdjustTgroupsToForbiddenEdges2
libinchi.so.0:AllInchiToStructure
libinchi.so.0:AllNodesAreInSet
libinchi.so.0:All_SB_Same
libinchi.so.0:All_SC_Same
libinchi.so.0:AllocBfsQueue
libinchi.so.0:AllocEdgeList
libinchi.so.0:Alloc_INChI
libinchi.so.0:Alloc_INChI_Aux
libinchi.so.0:Alloc_INChI_Stereo
libinchi.so.0:AllocateAndFillHillFormula
libinchi.so.0:AllocateAndInitBnData
libinchi.so.0:AllocateAndInitBnStruct
libinchi.so.0:AllocateAndInitTCGBnStruct
libinchi.so.0:AllocateCS
libinchi.so.0:AllocateForNonStereoRemoval
libinchi.so.0:AtomStcapStflow
libinchi.so.0:AugmentEdge
libinchi.so.0:BalancedNetworkSearch
libinchi.so.0:BnsAdjustFlowBondsRad
libinchi.so.0:BnsTestAndMarkAltBonds
libinchi.so.0:BondFlowMaxcapMinorder
libinchi.so.0:BreakAllTies
libinchi.so.0:BreakNeighborsTie
libinchi.so.0:CTableCreate
libinchi.so.0:CTableFree
libinchi.so.0:CalculatedPathsParitiesAreIdentical
libinchi.so.0:CanonGraph
libinchi.so.0:CanonOneComponentINChI
libinchi.so.0:CanonOneStructureINChI
libinchi.so.0:Canon_INChI
libinchi.so.0:Canon_INChI3
libinchi.so.0:Canonicalization_step
libinchi.so.0:CellGetMinNode
libinchi.so.0:CellGetNumberOfNodes
libinchi.so.0:CellIntersectWithSet
libinchi.so.0:CellMakeEmpty
libinchi.so.0:Check15TautPath
libinchi.so.0:Check15TautPathCenterpoint
libinchi.so.0:Check5MembTautRing
libinchi.so.0:Check6MembTautRing
libinchi.so.0:Check7MembTautRing
libinchi.so.0:CheckAndRefixStereobonds
libinchi.so.0:CheckBnsConsistency
libinchi.so.0:CheckCanonNumberingCorrectness
libinchi.so.0:CheckINCHI
libinchi.so.0:CheckINCHIKey
libinchi.so.0:CheckNextSymmNeighborsAndBonds
libinchi.so.0:CleanCt
libinchi.so.0:CleanIsoSortKeys
libinchi.so.0:CleanNumH
libinchi.so.0:CleanOrigCoord
libinchi.so.0:ClearAllBnDataEdges
libinchi.so.0:ClearAllBnDataVertices
libinchi.so.0:ClearEndpts
libinchi.so.0:ClearPreviousMappings
libinchi.so.0:CmpCCandidates
libinchi.so.0:CompAtomInvariants2
libinchi.so.0:CompAtomInvariants2Only
libinchi.so.0:CompCGroupNumber
libinchi.so.0:CompChemElemLex
libinchi.so.0:CompINChI2
libinchi.so.0:CompINChILayers
libinchi.so.0:CompINChINonTaut2
libinchi.so.0:CompINChITaut2
libinchi.so.0:CompINChITautVsNonTaut
libinchi.so.0:CompNeighListRanks
libinchi.so.0:CompNeighListRanksOrd
libinchi.so.0:CompNeighLists
libinchi.so.0:CompNeighListsUpToMaxRank
libinchi.so.0:CompNeighborsAT_NUMBER
libinchi.so.0:CompNeighborsRanksCountEql
libinchi.so.0:CompRank
libinchi.so.0:CompRankTautomer
libinchi.so.0:CompRanksInvOrd
libinchi.so.0:CompRanksOrd
libinchi.so.0:CompTGroupNumber
libinchi.so.0:CompareAllDisconnectedOrigInchiToRevInChI
libinchi.so.0:CompareAllOrigInchiToRevInChI
libinchi.so.0:CompareHillFormulas
libinchi.so.0:CompareHillFormulasNoH
libinchi.so.0:CompareIcr
libinchi.so.0:CompareInchiStereo
libinchi.so.0:CompareLinCtStereo
libinchi.so.0:CompareLinCtStereoAtomToValues
libinchi.so.0:CompareLinCtStereoCarb
libinchi.so.0:CompareLinCtStereoDble
libinchi.so.0:CompareLinCtStereoDoubleToValues
libinchi.so.0:CompareNeighListLex
libinchi.so.0:CompareNeighListLexUpToMaxRank
libinchi.so.0:CompareOneOrigInchiToRevInChI
libinchi.so.0:CompareReversedINChI
libinchi.so.0:CompareReversedINChI2
libinchi.so.0:CompareReversedINChI3
libinchi.so.0:CompareReversedStereoINChI
libinchi.so.0:CompareReversedStereoINChI2
libinchi.so.0:CompareReversedStereoINChI3
libinchi.so.0:CompareTautNonIsoPartOfINChI
libinchi.so.0:CompareTwoPairsOfInChI
libinchi.so.0:ConnectDisconnectedH
libinchi.so.0:ConnectMetalFlower
libinchi.so.0:ConnectSuperCGroup
libinchi.so.0:ConnectTwoVertices
libinchi.so.0:Convert_SIV_to_SVI
libinchi.so.0:Copy2StereoBondOrAllene
libinchi.so.0:CopyAt2St
libinchi.so.0:CopyBnsToAtom
libinchi.so.0:CopyLinearCTStereoToINChIStereo
libinchi.so.0:CopyMOLfile
libinchi.so.0:CopySt2At
libinchi.so.0:CountStereoTypes
libinchi.so.0:CountTautomerGroups
libinchi.so.0:CreateCGroupInBnStruct
libinchi.so.0:CreateCheckSymmPaths
libinchi.so.0:CreateCompAtomData
libinchi.so.0:CreateCompositeNormAtom
libinchi.so.0:CreateInchi_Atom
libinchi.so.0:CreateInchi_Stereo0D
libinchi.so.0:CreateInpAtom
libinchi.so.0:CreateInpAtomData
libinchi.so.0:CreateNeighList
libinchi.so.0:CreateNeighListFromLinearCT
libinchi.so.0:CreateOneComponentINChI
libinchi.so.0:CreateOneStructureINChI
libinchi.so.0:CreateTGroupInBnStruct
libinchi.so.0:Create_INChI
libinchi.so.0:CtCompareLayersGetFirstDiff
libinchi.so.0:CtFullCompare
libinchi.so.0:CtFullCompareLayers
libinchi.so.0:CtFullCopy
libinchi.so.0:CtPartClear
libinchi.so.0:CtPartCompare
libinchi.so.0:CtPartCompareLayers
libinchi.so.0:CtPartCopy
libinchi.so.0:CtPartFill
libinchi.so.0:CtPartInfinity
libinchi.so.0:CurTreeAddAtom
libinchi.so.0:CurTreeAddRank
libinchi.so.0:CurTreeAlloc
libinchi.so.0:CurTreeFree
libinchi.so.0:CurTreeGetPos
libinchi.so.0:CurTreeIsLastAtomEqu
libinchi.so.0:CurTreeIsLastRank
libinchi.so.0:CurTreeKeepLastAtomsOnly
libinchi.so.0:CurTreeReAlloc
libinchi.so.0:CurTreeRemoveIfLastAtom
libinchi.so.0:CurTreeRemoveLastRank
libinchi.so.0:CurTreeRemoveLastRankIfNoAtoms
libinchi.so.0:CurTreeSetPos
libinchi.so.0:DFS_FindTautAltPath
libinchi.so.0:DFS_FindTautInARing
libinchi.so.0:DeAllocBCN
libinchi.so.0:DeAllocateBnData
libinchi.so.0:DeAllocateBnStruct
libinchi.so.0:DeAllocateCS
libinchi.so.0:DeAllocateForNonStereoRemoval
libinchi.so.0:DetectInpInchiCreationOptions
libinchi.so.0:DifferentiateRanks2
libinchi.so.0:DifferentiateRanks3
libinchi.so.0:DifferentiateRanks4
libinchi.so.0:DifferentiateRanksBasic
libinchi.so.0:DisconnectAmmoniumSalt
libinchi.so.0:DisconnectInpAtBond
libinchi.so.0:DisconnectMetalSalt
libinchi.so.0:DisconnectMetals
libinchi.so.0:DisconnectOneLigand
libinchi.so.0:DisconnectSalts
libinchi.so.0:DisconnectedConnectedH
libinchi.so.0:DoNodeSetsIntersect
libinchi.so.0:DuplicateOrigAtom
libinchi.so.0:EliminateChargeSeparationOnHeteroatoms
libinchi.so.0:EliminateNitrogen5Val3Bonds
libinchi.so.0:EliminatePlusMinusChargeAmbiguity
libinchi.so.0:EqlOrigInfo
libinchi.so.0:Eql_INChI_Aux_Equ
libinchi.so.0:Eql_INChI_Aux_Num
libinchi.so.0:Eql_INChI_Isotopic
libinchi.so.0:Eql_INChI_Stereo
libinchi.so.0:EquString
libinchi.so.0:ErrMsg
libinchi.so.0:EvaluateChargeChanges
libinchi.so.0:Extract0DParities
libinchi.so.0:ExtractConnectedComponent
libinchi.so.0:ExtractOneStructure
libinchi.so.0:FillAllStereoDescriptors
libinchi.so.0:FillIsotopicAtLinearCT
libinchi.so.0:FillOutAtomInvariant2
libinchi.so.0:FillOutCMP2FHINCHI
libinchi.so.0:FillOutCMP2MHINCHI
libinchi.so.0:FillOutCompareMessage
libinchi.so.0:FillOutExtraFixedHDataInChI
libinchi.so.0:FillOutExtraFixedHDataRestr
libinchi.so.0:FillOutINChI
libinchi.so.0:FillOutINChIReducedWarn
libinchi.so.0:FillOutOrigStruct
libinchi.so.0:FillOutStereoParities
libinchi.so.0:FillOutpStructEndpointFromInChI
libinchi.so.0:FillSingleStereoDescriptors
libinchi.so.0:FillTautLinearCT2
libinchi.so.0:FindAccessibleEndPoints
libinchi.so.0:FindBase
libinchi.so.0:FindInEdgeList
libinchi.so.0:FindPathCap
libinchi.so.0:FindPathToVertex_s
libinchi.so.0:FindToken
libinchi.so.0:FixCanonEquivalenceInfo
libinchi.so.0:FixFixedHRestoredStructure
libinchi.so.0:FixLessHydrogenInFormula
libinchi.so.0:FixMetal_Nminus_Ominus
libinchi.so.0:FixMobileHRestoredStructure
libinchi.so.0:FixMoreHydrogenInFormula
libinchi.so.0:FixRemoveExtraTautEndpoints
libinchi.so.0:FixRestoredStructureStereo
libinchi.so.0:FixSb0DParities
libinchi.so.0:FixUnkn0DStereoBonds
libinchi.so.0:ForbidCarbonChargeEdges
libinchi.so.0:ForbidNintrogenPlus2BondsInSmallRings
libinchi.so.0:FreeAllINChIArrays
libinchi.so.0:FreeCompAtomData
libinchi.so.0:FreeINCHI
libinchi.so.0:FreeINChIArrays
libinchi.so.0:FreeInchi_Atom
libinchi.so.0:FreeInchi_Input
libinchi.so.0:FreeInchi_Stereo0D
libinchi.so.0:FreeInpAtom
libinchi.so.0:FreeInpAtomData
libinchi.so.0:FreeInpInChI
libinchi.so.0:FreeNeighList
libinchi.so.0:FreeOrigAtData
libinchi.so.0:FreeOrigStruct
libinchi.so.0:FreeStdINCHI
libinchi.so.0:FreeStrFromINChI
libinchi.so.0:FreeStructFromINCHI
libinchi.so.0:FreeStructFromStdINCHI
libinchi.so.0:Free_INChI
libinchi.so.0:Free_INChI_Aux
libinchi.so.0:Free_INChI_Members
libinchi.so.0:Free_INChI_Stereo
libinchi.so.0:Free_inchi_Input
libinchi.so.0:Free_std_inchi_Input
libinchi.so.0:Get2ndEdgeVertex
libinchi.so.0:GetAndCheckNextNeighbors
libinchi.so.0:GetAtomChargeType
libinchi.so.0:GetAtomRestoreInfo
libinchi.so.0:GetBaseCanonRanking
libinchi.so.0:GetCanonLengths
libinchi.so.0:GetChargeFlowerUpperEdge
libinchi.so.0:GetChargeType
libinchi.so.0:GetDeltaChargeFromVF
libinchi.so.0:GetDfsOrder4CT
libinchi.so.0:GetEdgePointer
libinchi.so.0:GetEdgeToGroupVertex
libinchi.so.0:GetElementAndCount
libinchi.so.0:GetElementFormulaFromAtNum
libinchi.so.0:GetGroupVertex
libinchi.so.0:GetHalfStereobond0DParity
libinchi.so.0:GetHillFormulaCounts
libinchi.so.0:GetHillFormulaIndexLength
libinchi.so.0:GetINCHI
libinchi.so.0:GetINCHIKeyFromINCHI
libinchi.so.0:GetINCHIfromINCHI
libinchi.so.0:GetInpStructErrorType
libinchi.so.0:GetMaxPrintfLength
libinchi.so.0:GetMinDistDistribution
libinchi.so.0:GetMinNewRank
libinchi.so.0:GetMinRingSize
libinchi.so.0:GetNeutralRepsIfNeeded
libinchi.so.0:GetNextNeighborAndRank
libinchi.so.0:GetNumNeighborsFromInchi
libinchi.so.0:GetOneAdditionalLayer
libinchi.so.0:GetOneComponent
libinchi.so.0:GetOtherSaltChargeType
libinchi.so.0:GetOtherSaltType
libinchi.so.0:GetPermutationParity
libinchi.so.0:GetPlusMinusVertex
libinchi.so.0:GetPrevVertex
libinchi.so.0:GetProcessingWarnings
libinchi.so.0:GetProcessingWarningsOneINChI
libinchi.so.0:GetSaltChargeType
libinchi.so.0:GetSaveOptLetters
libinchi.so.0:GetSp3RelRacAbs
libinchi.so.0:GetStdINCHI
libinchi.so.0:GetStdINCHIKeyFromStdINCHI
libinchi.so.0:GetStereoBondParity
libinchi.so.0:GetStereoCenterParity
libinchi.so.0:GetStereoNeighborPos
libinchi.so.0:GetStereocenter0DParity
libinchi.so.0:GetStringLength
libinchi.so.0:GetStructFromINCHI
libinchi.so.0:GetStructFromStdINCHI
libinchi.so.0:GetTgroupInfoFromInChI
libinchi.so.0:GetUnorderedPartitionMcrNode
libinchi.so.0:GetVertexDegree
libinchi.so.0:GetVertexNeighbor
libinchi.so.0:Get_inchi_Input_FromAuxInfo
libinchi.so.0:Get_std_inchi_Input_FromAuxInfo
libinchi.so.0:HalfStereoBondParity
libinchi.so.0:HardAddAcidicProtons
libinchi.so.0:HardRemoveAcidicProtons
libinchi.so.0:HardRemoveHplusNP
libinchi.so.0:HelpCommandLineParms
libinchi.so.0:HelpCommandLineParmsReduced
libinchi.so.0:INCHIGEN_Create
libinchi.so.0:INCHIGEN_Destroy
libinchi.so.0:INCHIGEN_DoCanonicalization
libinchi.so.0:INCHIGEN_DoNormalization
libinchi.so.0:INCHIGEN_DoSerialization
libinchi.so.0:INCHIGEN_Reset
libinchi.so.0:INCHIGEN_Setup
libinchi.so.0:INChIToInchi_Input
libinchi.so.0:INChI_SegmentAction
libinchi.so.0:InChI2Atom
libinchi.so.0:InChILine2Data
libinchi.so.0:InchiTimeAddMsec
libinchi.so.0:InchiTimeElapsed
libinchi.so.0:InchiTimeGet
libinchi.so.0:InchiTimeMsecDiff
libinchi.so.0:IncrZeroBonds
libinchi.so.0:IncrZeroBondsAndClearEndpts
libinchi.so.0:IncrementZeroOrderBondsToHeteroat
libinchi.so.0:InpAtom0DToInchiAtom
libinchi.so.0:InvertStereo
libinchi.so.0:IsNodeSetEmpty
libinchi.so.0:IsZOX
libinchi.so.0:LoadLine
libinchi.so.0:LtrimRtrim
libinchi.so.0:MakeAbcNumber
libinchi.so.0:MakeBlossom
libinchi.so.0:MakeCRVString
libinchi.so.0:MakeCtString
libinchi.so.0:MakeCtStringNew
libinchi.so.0:MakeCtStringOld
libinchi.so.0:MakeDecNumber
libinchi.so.0:MakeDelim
libinchi.so.0:MakeEqStr
libinchi.so.0:MakeEquString
libinchi.so.0:MakeHString
libinchi.so.0:MakeHillFormula
libinchi.so.0:MakeHillFormulaString
libinchi.so.0:MakeInChIOutOfStrFromINChI2
libinchi.so.0:MakeIsoAtomString
libinchi.so.0:MakeIsoHString
libinchi.so.0:MakeIsoTautString
libinchi.so.0:MakeIsotopicHGroup
libinchi.so.0:MakeMult
libinchi.so.0:MakeOneInChIOutOfStrFromINChI
libinchi.so.0:MakeOneInChIOutOfStrFromINChI2
libinchi.so.0:MakeProtonComponent
libinchi.so.0:MakeSingleBondsMetal2ChargedHeteroat
libinchi.so.0:MakeStereoString
libinchi.so.0:MakeTautString
libinchi.so.0:MarkAmbiguousStereo
libinchi.so.0:MarkAtomsAtTautGroups
libinchi.so.0:MarkChargeGroups
libinchi.so.0:MarkDisconectedIdenticalToReconnected
libinchi.so.0:MarkDisconnectedComponents
libinchi.so.0:MarkKnownEqualStereoBondParities
libinchi.so.0:MarkKnownEqualStereoCenterParities
libinchi.so.0:MarkNonStereoAltBns
libinchi.so.0:MarkRingSystemsAltBns
libinchi.so.0:MarkRingSystemsInp
libinchi.so.0:MarkSaltChargeGroups
libinchi.so.0:MarkSaltChargeGroups2
libinchi.so.0:MarkTautomerGroups
libinchi.so.0:MarkUnusedAndEmptyLayers
libinchi.so.0:MergeSaltTautGroups
libinchi.so.0:MergeStructureComponents
libinchi.so.0:MoveChargeToMakeCenerpoints
libinchi.so.0:MoveChargeToRemoveCenerpoints
libinchi.so.0:MoveMobileHToAvoidFixedBonds
libinchi.so.0:MovePlusFromS2DiaminoCarbon
libinchi.so.0:MoveRadToAtomsAddCharges
libinchi.so.0:Needs2addXmlEntityRefs
libinchi.so.0:NextStereoParity2Test
libinchi.so.0:Next_SB_At_CanonRanks2
libinchi.so.0:Next_SC_At_CanonRank2
libinchi.so.0:NodeSetCreate
libinchi.so.0:NodeSetFree
libinchi.so.0:NodeSetFromRadEndpoints
libinchi.so.0:NodeSetFromVertices
libinchi.so.0:NormOneComponentINChI
libinchi.so.0:NormOneStructureINChI
libinchi.so.0:Normalization_step
libinchi.so.0:NormalizeAndCompare
libinchi.so.0:NumberOfTies
libinchi.so.0:OneInChI2Atom
libinchi.so.0:OutputINChI1
libinchi.so.0:OutputINChI2
libinchi.so.0:OutputINChIPlainError
libinchi.so.0:OutputINChIXmlError
libinchi.so.0:OutputINChIXmlRootEndTag
libinchi.so.0:OutputINChIXmlRootStartTag
libinchi.so.0:OutputINChIXmlStructEndTag
libinchi.so.0:OutputINChIXmlStructStartTag
libinchi.so.0:OutputInChIOutOfStrFromINChI
libinchi.so.0:PartitionColorVertex
libinchi.so.0:PartitionCopy
libinchi.so.0:PartitionCreate
libinchi.so.0:PartitionFree
libinchi.so.0:PartitionGetFirstCell
libinchi.so.0:PartitionGetMcrAndFixSet
libinchi.so.0:PartitionGetTransposition
libinchi.so.0:PartitionIsDiscrete
libinchi.so.0:PartitionSatisfiesLemma_2_25
libinchi.so.0:PathsHaveIdenticalKnownParities
libinchi.so.0:PlusFromDB_N_DB_O_to_Metal
libinchi.so.0:PreprocessOneStructure
libinchi.so.0:PrintInputParms
libinchi.so.0:PrintXmlStartTag
libinchi.so.0:ProcessOneStructure
libinchi.so.0:ProcessStructError
libinchi.so.0:PullFlow
libinchi.so.0:QueueAdd
libinchi.so.0:QueueCreate
libinchi.so.0:QueueDelete
libinchi.so.0:QueueGet
libinchi.so.0:QueueGetAny
libinchi.so.0:QueueLength
libinchi.so.0:QueueReinit
libinchi.so.0:QueueWrittenLength
libinchi.so.0:ReInitBnData
libinchi.so.0:ReInitBnStruct
libinchi.so.0:ReInitBnStructAddGroups
libinchi.so.0:ReInitBnStructAltPaths
libinchi.so.0:ReInitBnStructForAltBns
libinchi.so.0:ReadCommandLineParms
libinchi.so.0:ReadWriteInChI
libinchi.so.0:ReallocTCGroups
libinchi.so.0:RearrangePlusMinusEdgesFlow
libinchi.so.0:ReconcileAllCmlBondParities
libinchi.so.0:ReconcileCmlIncidentBondParities
libinchi.so.0:RegisterCPoints
libinchi.so.0:RegisterEndPoints
libinchi.so.0:RegisterRadEndpoint
libinchi.so.0:RegisterTCGroup
libinchi.so.0:RemoveCalculatedNonStereo
libinchi.so.0:RemoveCalculatedNonStereoBondParities
libinchi.so.0:RemoveCalculatedNonStereoCenterParities
libinchi.so.0:RemoveFixHInChIIdentical2MobH
libinchi.so.0:RemoveForbiddenBondFlowBits
libinchi.so.0:RemoveForbiddenEdgeMask
libinchi.so.0:RemoveFromEdgeListByIndex
libinchi.so.0:RemoveFromEdgeListByValue
libinchi.so.0:RemoveFromNodeSet
libinchi.so.0:RemoveHalfStereoBond
libinchi.so.0:RemoveInpAtBond
libinchi.so.0:RemoveKnownNonStereoBondParities
libinchi.so.0:RemoveKnownNonStereoCenterParities
libinchi.so.0:RemoveLastGroupFromBnStruct
libinchi.so.0:RemoveNPProtonsAndAcidCharges
libinchi.so.0:RemoveOneStereoBond
libinchi.so.0:RemoveOneStereoCenter
libinchi.so.0:RemoveRadEndpoints
libinchi.so.0:RemoveRadFromMobileHEndpoint
libinchi.so.0:RemoveRadFromMobileHEndpointFixH
libinchi.so.0:RestoreAtomConnectionsSetStereo
libinchi.so.0:RestoreAtomMakeBNS
libinchi.so.0:RestoreBnStructFlow
libinchi.so.0:RestoreCyanoGroup
libinchi.so.0:RestoreEdgeFlow
libinchi.so.0:RestoreIsoCyanoGroup
libinchi.so.0:RestoreNNNgroup
libinchi.so.0:RestoreRadicalsOnly
libinchi.so.0:RunBalancedNetworkSearch
libinchi.so.0:RunBnsRestore1
libinchi.so.0:RunBnsRestoreOnce
libinchi.so.0:RunBnsTestOnce
libinchi.so.0:STDINCHIGEN_Create
libinchi.so.0:STDINCHIGEN_Destroy
libinchi.so.0:STDINCHIGEN_DoCanonicalization
libinchi.so.0:STDINCHIGEN_DoNormalization
libinchi.so.0:STDINCHIGEN_DoSerialization
libinchi.so.0:STDINCHIGEN_Reset
libinchi.so.0:STDINCHIGEN_Setup
libinchi.so.0:SaltBondsToCoordBonds
libinchi.so.0:SetAtomAndBondProperties
libinchi.so.0:SetAtomBondType
libinchi.so.0:SetAtomProperties
libinchi.so.0:SetAtomRadAndChemValFromVertexCapFlow
libinchi.so.0:SetBitCreate
libinchi.so.0:SetBitFree
libinchi.so.0:SetBondProperties
libinchi.so.0:SetBondsFromBnStructFlow
libinchi.so.0:SetConnectedComponentNumber
libinchi.so.0:SetCtToIsotopicStereo
libinchi.so.0:SetCtToNonIsotopicStereo
libinchi.so.0:SetEdgeCapFlow
libinchi.so.0:SetForbiddenEdgeMask
libinchi.so.0:SetForbiddenEdges
libinchi.so.0:SetHalfStereoBondIllDefPariy
libinchi.so.0:SetInitCapFlowToCurrent
libinchi.so.0:SetInitialRanks2
libinchi.so.0:SetKnownStereoBondParities
libinchi.so.0:SetKnownStereoCenterParities
libinchi.so.0:SetNewRanksFromNeighLists
libinchi.so.0:SetNewRanksFromNeighLists3
libinchi.so.0:SetNewRanksFromNeighLists4
libinchi.so.0:SetNumImplicitH
libinchi.so.0:SetOneStereoBondIllDefParity
libinchi.so.0:SetRadEndpoints
libinchi.so.0:SetRadEndpoints2
libinchi.so.0:SetStCapFlow
libinchi.so.0:SetStereoBondTypeFor0DParity
libinchi.so.0:SetStereoBondTypesFrom0DStereo
libinchi.so.0:SetTautomericBonds
libinchi.so.0:SetUpSrm
libinchi.so.0:SetUseAtomForStereo
libinchi.so.0:SimpleAddAcidicProtons
libinchi.so.0:SimpleRemoveAcidicProtons
libinchi.so.0:SimpleRemoveHplusNPO
libinchi.so.0:SortAndPrintINChI
libinchi.so.0:SortNeighLists2
libinchi.so.0:SortNeighLists3
libinchi.so.0:SortNeighListsBySymmAndCanonRank
libinchi.so.0:SortTautomerGroupsAndEndpoints
libinchi.so.0:SortedEquInfoToRanks
libinchi.so.0:SortedRanksToEquInfo
libinchi.so.0:SubtractOrChangeAtHChargeBNS
libinchi.so.0:SwitchAtomStereoAndIsotopicStereo
libinchi.so.0:TranspositionCreate
libinchi.so.0:TranspositionFree
libinchi.so.0:TranspositionGetMcrAndFixSetAndUnorderedPartition
libinchi.so.0:TreatCreateINChIWarning
libinchi.so.0:TreatCreateOneComponentINChIError
libinchi.so.0:TreatReadTheStructureErrors
libinchi.so.0:UnmarkAllUndefinedUnknownStereo
libinchi.so.0:UnmarkNonStereo
libinchi.so.0:UnorderedPartitionCreate
libinchi.so.0:UnorderedPartitionFree
libinchi.so.0:UnorderedPartitionJoin
libinchi.so.0:UnorderedPartitionMakeDiscrete
libinchi.so.0:UpdateCompareLayers
libinchi.so.0:UpdateFullLinearCT
libinchi.so.0:WriteCoord
libinchi.so.0:WriteOrigAtomDataToSDfile
libinchi.so.0:WriteOrigAtoms
libinchi.so.0:WriteOrigBonds
libinchi.so.0:WriteOrigCoord
libinchi.so.0:_strdup
libinchi.so.0:_strnset
libinchi.so.0:add_DT_to_num_H
libinchi.so.0:are_alt_bonds
libinchi.so.0:bAddNewVertex
libinchi.so.0:bAddStCapToAVertex
libinchi.so.0:bAtomHasValence3
libinchi.so.0:bCanAtomBeMiddleAllene
libinchi.so.0:bCanAtomBeTerminalAllene
libinchi.so.0:bCanAtomHaveAStereoBond
libinchi.so.0:bCanBeACPoint
libinchi.so.0:bCanInpAtomBeAStereoCenter
libinchi.so.0:bCheckUnusualValences
libinchi.so.0:bDoNotMergeNonTautAtom
libinchi.so.0:bExistsAltPath
libinchi.so.0:bExistsAnyAltPath
libinchi.so.0:bFindCumuleneChain
libinchi.so.0:bHasAcidicHydrogen
libinchi.so.0:bHasAcidicMinus
libinchi.so.0:bHasChargedNeighbor
libinchi.so.0:bHasEquString
libinchi.so.0:bHasOrigInfo
libinchi.so.0:bHasOtherExchangableH
libinchi.so.0:bHas_N_V
libinchi.so.0:bHeteroAtomMayHaveXchgIsoH
libinchi.so.0:bIgnoreVertexNonTACN_atom
libinchi.so.0:bIgnoreVertexNonTACN_group
libinchi.so.0:bInchiTimeIsOver
libinchi.so.0:bInpInchiComponentDeleted
libinchi.so.0:bInpInchiComponentExists
libinchi.so.0:bIsAmmoniumSalt
libinchi.so.0:bIsAtomTypeHard
libinchi.so.0:bIsBnsEndpoint
libinchi.so.0:bIsCenterPointStrict
libinchi.so.0:bIsHDonorAccAtomType
libinchi.so.0:bIsHardRemHCandidate
libinchi.so.0:bIsMetalSalt
libinchi.so.0:bIsMetalToDisconnect
libinchi.so.0:bIsNegAtomType
libinchi.so.0:bIsStructChiral
libinchi.so.0:bIsUnsatCarbonInASmallRing
libinchi.so.0:bMayBeACationInMobileHLayer
libinchi.so.0:bMayDisconnectMetals
libinchi.so.0:bNeedToTestTheFlow
libinchi.so.0:bNumHeterAtomHasIsotopicH
libinchi.so.0:bRadChangesAtomType
libinchi.so.0:bRestoreBnsAfterCheckAltPath
libinchi.so.0:bRestoreFlowAfterCheckOneBond
libinchi.so.0:bRevInchiComponentDeleted
libinchi.so.0:bRevInchiComponentExists
libinchi.so.0:bSetBnsToCheckAltPath
libinchi.so.0:bSetBondsAfterCheckOneBond
libinchi.so.0:bSetFlowToCheckOneBond
libinchi.so.0:bUniqueAtNbrFromMappingRank
libinchi.so.0:base26_checksum
libinchi.so.0:base26_dublet_for_bits_28_to_36
libinchi.so.0:base26_dublet_for_bits_56_to_64
libinchi.so.0:base26_triplet_1
libinchi.so.0:base26_triplet_2
libinchi.so.0:base26_triplet_3
libinchi.so.0:base26_triplet_4
libinchi.so.0:bin_AuxTautTrans
libinchi.so.0:clean_charge_val
libinchi.so.0:clear_t_group_info
libinchi.so.0:cmp_charge_val
libinchi.so.0:cmp_components
libinchi.so.0:cmp_iso_atw_diff_component_no
libinchi.so.0:cmp_rad_endpoints
libinchi.so.0:comp_AT_NUMB
libinchi.so.0:comp_AT_RANK
libinchi.so.0:comp_candidates
libinchi.so.0:comp_cc_cand
libinchi.so.0:compare_NeighLists
libinchi.so.0:detect_unusual_el_valence
libinchi.so.0:dist3D
libinchi.so.0:do_not_add_H
libinchi.so.0:extract_ChargeRadical
libinchi.so.0:extract_H_atoms
libinchi.so.0:extract_inchi_substring
libinchi.so.0:find_atoms_with_parity
libinchi.so.0:fix_odd_things
libinchi.so.0:fix_special_bonds
libinchi.so.0:fprint_digest
libinchi.so.0:free_t_group_info
libinchi.so.0:get_atw_from_elnum
libinchi.so.0:get_el_number
libinchi.so.0:get_el_type
libinchi.so.0:get_el_valence
libinchi.so.0:get_endpoint_valence
libinchi.so.0:get_endpoint_valence_KET
libinchi.so.0:get_iat_number
libinchi.so.0:get_num_H
libinchi.so.0:get_opposite_sb_atom
libinchi.so.0:get_pVA_atom_type
libinchi.so.0:get_periodic_table_number
libinchi.so.0:get_sp_element_type
libinchi.so.0:get_unusual_el_valence
libinchi.so.0:get_xtra_hash_major_hex
libinchi.so.0:get_xtra_hash_minor_hex
libinchi.so.0:has_other_ion_in_sphere_2
libinchi.so.0:has_other_ion_neigh
libinchi.so.0:inchi_fgetsLf
libinchi.so.0:inchi_fgetsLfTab
libinchi.so.0:inchi_fgetsTab
libinchi.so.0:inchi_fprintf
libinchi.so.0:inchi_ios_close
libinchi.so.0:inchi_ios_eprint
libinchi.so.0:inchi_ios_flush
libinchi.so.0:inchi_ios_flush2
libinchi.so.0:inchi_ios_gets
libinchi.so.0:inchi_ios_getsTab
libinchi.so.0:inchi_ios_getsTab1
libinchi.so.0:inchi_ios_init
libinchi.so.0:inchi_ios_print
libinchi.so.0:inchi_ios_print_nodisplay
libinchi.so.0:inchi_ios_reset
libinchi.so.0:inchi_ios_str_getc
libinchi.so.0:inchi_ios_str_gets
libinchi.so.0:inchi_ios_str_getsTab
libinchi.so.0:inchi_print_nodisplay
libinchi.so.0:inchi_strtod
libinchi.so.0:inchi_strtol
libinchi.so.0:inchi_swap
libinchi.so.0:inchi_vfprintf
libinchi.so.0:inp2spATOM
libinchi.so.0:insertions_sort
libinchi.so.0:insertions_sort_AT_NUMB
libinchi.so.0:insertions_sort_AT_NUMBERS
libinchi.so.0:insertions_sort_AT_RANK
libinchi.so.0:insertions_sort_NeighListBySymmAndCanonRank
libinchi.so.0:insertions_sort_NeighList_AT_NUMBERS
libinchi.so.0:insertions_sort_NeighList_AT_NUMBERS2
libinchi.so.0:insertions_sort_NeighList_AT_NUMBERS3
libinchi.so.0:is_Z_atom
libinchi.so.0:is_atom_in_3memb_ring
libinchi.so.0:is_bond_in_Nmax_memb_ring
libinchi.so.0:is_centerpoint_elem
libinchi.so.0:is_centerpoint_elem_KET
libinchi.so.0:is_centerpoint_elem_strict
libinchi.so.0:is_el_a_metal
libinchi.so.0:is_element_a_metal
libinchi.so.0:is_in_the_list
libinchi.so.0:is_in_the_slist
libinchi.so.0:l_INChIToInchi_Atom
libinchi.so.0:ll_INChIToInchi_Atom
libinchi.so.0:make_a_copy_of_t_group_info
libinchi.so.0:make_iso_sort_key
libinchi.so.0:make_norm_atoms_from_inp_atoms
libinchi.so.0:map_an_atom2
libinchi.so.0:map_stereo_atoms4
libinchi.so.0:map_stereo_bonds4
libinchi.so.0:mark_alt_bonds_and_taut_groups
libinchi.so.0:mark_at_type
libinchi.so.0:memicmp
libinchi.so.0:might_change_other_atom_parity
libinchi.so.0:move_explicit_Hcation
libinchi.so.0:mystrncpy
libinchi.so.0:mystrrev
libinchi.so.0:nAddSuperCGroups
libinchi.so.0:nBondsValToMetal
libinchi.so.0:nBondsValenceInpAt
libinchi.so.0:nCountBnsSizes
libinchi.so.0:nCurFlow2Check
libinchi.so.0:nFindOneOM
libinchi.so.0:nGet12TautIn5MembAltRing
libinchi.so.0:nGet14TautIn5MembAltRing
libinchi.so.0:nGet14TautIn7MembAltRing
libinchi.so.0:nGet15TautIn6MembAltRing
libinchi.so.0:nGet15TautInAltPath
libinchi.so.0:nGetEndpointInfo
libinchi.so.0:nGetEndpointInfo_KET
libinchi.so.0:nGetMcr
libinchi.so.0:nGetMcr2
libinchi.so.0:nJoin2Mcrs
libinchi.so.0:nJoin2Mcrs2
libinchi.so.0:nMaxFlow2Check
libinchi.so.0:nMinFlow2Check
libinchi.so.0:nNoMetalBondsValence
libinchi.so.0:nNoMetalNeighIndex
libinchi.so.0:nNoMetalNumBonds
libinchi.so.0:nNoMetalOtherNeighIndex
libinchi.so.0:nNoMetalOtherNeighIndex2
libinchi.so.0:nNumEdgesToCnVertex
libinchi.so.0:nTautEndpointEdgeCap
libinchi.so.0:needed_unusual_el_valence
libinchi.so.0:num_of_H
libinchi.so.0:parity_of_mapped_atom2
libinchi.so.0:parity_of_mapped_half_bond
libinchi.so.0:parse_options_string
libinchi.so.0:post_fix_odd_things
libinchi.so.0:remove_ion_pairs
libinchi.so.0:remove_terminal_HDT
libinchi.so.0:rescap
libinchi.so.0:rescap_mark
libinchi.so.0:set_atom_0D_parity
libinchi.so.0:set_atom_iso_sort_keys
libinchi.so.0:set_bond_type
libinchi.so.0:set_cumulene_0D_parity
libinchi.so.0:set_stereo_parity
libinchi.so.0:set_tautomer_iso_sort_keys
libinchi.so.0:sha2_csum
libinchi.so.0:sha2_file
libinchi.so.0:sha2_finish
libinchi.so.0:sha2_hmac
libinchi.so.0:sha2_self_test
libinchi.so.0:sha2_starts
libinchi.so.0:sha2_update
libinchi.so.0:str_AuxChargeRadVal
libinchi.so.0:str_AuxEqu
libinchi.so.0:str_AuxInvIsoSp3
libinchi.so.0:str_AuxInvIsoSp3Numb
libinchi.so.0:str_AuxInvSp3
libinchi.so.0:str_AuxInvSp3Numb
libinchi.so.0:str_AuxIsoEqu
libinchi.so.0:str_AuxIsoNumb
libinchi.so.0:str_AuxIsoTgroupEqu
libinchi.so.0:str_AuxNumb
libinchi.so.0:str_AuxTautTrans
libinchi.so.0:str_AuxTgroupEqu
libinchi.so.0:str_Charge2
libinchi.so.0:str_Connections
libinchi.so.0:str_FixedH_atoms
libinchi.so.0:str_H_atoms
libinchi.so.0:str_HillFormula
libinchi.so.0:str_HillFormula2
libinchi.so.0:str_IsoAtoms
libinchi.so.0:str_IsoSp2
libinchi.so.0:str_IsoSp3
libinchi.so.0:str_IsoStereoAbsInv
libinchi.so.0:str_LineEnd
libinchi.so.0:str_LineStart
libinchi.so.0:str_Sp2
libinchi.so.0:str_Sp3
libinchi.so.0:str_StereoAbsInv
libinchi.so.0:stricmp
libinchi.so.0:switch_ptrs
libinchi.so.0:szGetTag
libinchi.so.0:the_only_doublet_neigh
libopenbabel.so.5:_Z10matchFilesP6dirent
libopenbabel.so.5:_Z17print_sym_classesRKNSt7__cxx1112basic_stringIcSt11char_traitsIcESaIcEEERKSt6vectorISt4pairIPN9OpenBabel6OBAtomEjESaISC_EE
libopenbabel.so.5:_ZN9DLHandler12getSeparatorEv
libopenbabel.so.5:_ZN9DLHandler16getConvDirectoryERNSt7__cxx1112basic_stringIcSt11char_traitsIcESaIcEEE
libopenbabel.so.5:_ZN9DLHandler20getFormatFilePatternEv
libopenbabel.so.5:_ZN9DLHandler7openLibERKNSt7__cxx1112basic_stringIcSt11char_traitsIcESaIcEEE
libopenbabel.so.5:_ZN9DLHandler9findFilesERSt6vectorINSt7__cxx1112basic_stringIcSt11char_traitsIcESaIcEEESaIS6_EERKS6_
libopenbabel.so.5:_ZN9DLHandler9findFilesERSt6vectorINSt7__cxx1112basic_stringIcSt11char_traitsIcESaIcEEESaIS6_EERKS6_SB_
libopenbabel.so.5:_ZN9OpenBabel10AngleOrderERKNS_7vector3ES2_S2_S2_
libopenbabel.so.5:_ZN9OpenBabel10FastSearch11FindSimilarEPNS_6OBBaseERSt8multimapIdjSt4lessIdESaISt4pairIKdjEEEdd
libopenbabel.so.5:_ZN9OpenBabel10FastSearch11FindSimilarEPNS_6OBBaseERSt8multimapIdjSt4lessIdESaISt4pairIKdjEEEi
libopenbabel.so.5:_ZN9OpenBabel10FastSearch13ReadIndexFileENSt7__cxx1112basic_stringIcSt11char_traitsIcESaIcEEE
libopenbabel.so.5:_ZN9OpenBabel10FastSearch4FindEPNS_6OBBaseERSt6vectorIjSaIjEEj
libopenbabel.so.5:_ZN9OpenBabel10FastSearch9FindMatchEPNS_6OBBaseERSt6vectorIjSaIjEEj
libopenbabel.so.5:_ZN9OpenBabel10FastSearch9ReadIndexB5cxx11EPSi
libopenbabel.so.5:_ZN9OpenBabel10InvertCaseEPc
libopenbabel.so.5:_ZN9OpenBabel10InvertCaseERNSt7__cxx1112basic_stringIcSt11char_traitsIcESaIcEEEj
libopenbabel.so.5:_ZN9OpenBabel10IsNearZeroERKdd
libopenbabel.so.5:_ZN9OpenBabel10OBChemTsfm4InitERNSt7__cxx1112basic_stringIcSt11char_traitsIcESaIcEEES7_
libopenbabel.so.5:_ZN9OpenBabel10OBChemTsfm5ApplyERNS_5OBMolE
libopenbabel.so.5:_ZN9OpenBabel10OBChemTsfm6IsAcidEv
libopenbabel.so.5:_ZN9OpenBabel10OBChemTsfm6IsBaseEv
libopenbabel.so.5:_ZN9OpenBabel10OBGastChrg17GasteigerSigmaChiEPNS_6OBAtomERdS3_S3_
libopenbabel.so.5:_ZN9OpenBabel10OBGastChrg20AssignPartialChargesERNS_5OBMolE
libopenbabel.so.5:_ZN9OpenBabel10OBGastChrg21InitialPartialChargesERNS_5OBMolE
libopenbabel.so.5:_ZN9OpenBabel10OBGastChrg9GSVResizeEi
libopenbabel.so.5:_ZN9OpenBabel10OBGastChrgD1Ev
libopenbabel.so.5:_ZN9OpenBabel10OBGastChrgD2Ev
libopenbabel.so.5:_ZN9OpenBabel10OBGraphSym11GetSymmetryERSt6vectorIjSaIjEE
libopenbabel.so.5:_ZN9OpenBabel10OBGraphSym13ClearSymmetryEv
libopenbabel.so.5:_ZN9OpenBabel10OBGraphSymC1EPNS_5OBMolEPKNS_8OBBitVecE
libopenbabel.so.5:_ZN9OpenBabel10OBGraphSymC2EPNS_5OBMolEPKNS_8OBBitVecE
libopenbabel.so.5:_ZN9OpenBabel10OBGraphSymD0Ev
libopenbabel.so.5:_ZN9OpenBabel10OBGraphSymD1Ev
libopenbabel.so.5:_ZN9OpenBabel10OBGraphSymD2Ev
libopenbabel.so.5:_ZN9OpenBabel10OBGridData15SetUnrestrictedEb
libopenbabel.so.5:_ZN9OpenBabel10OBGridData16SetNumSymmetriesEi
libopenbabel.so.5:_ZN9OpenBabel10OBGridData17SetNumberOfPointsEiii
libopenbabel.so.5:_ZN9OpenBabel10OBGridData7SetUnitENS0_4UnitE
libopenbabel.so.5:_ZN9OpenBabel10OBGridData8SetValueEiiid
libopenbabel.so.5:_ZN9OpenBabel10OBGridData9SetLimitsEPKdS2_S2_S2_
libopenbabel.so.5:_ZN9OpenBabel10OBGridData9SetLimitsERKNS_7vector3ES3_S3_S3_
libopenbabel.so.5:_ZN9OpenBabel10OBGridData9SetValuesERKSt6vectorIdSaIdEE
libopenbabel.so.5:_ZN9OpenBabel10OBGridDataC1Ev
libopenbabel.so.5:_ZN9OpenBabel10OBGridDataC2Ev
libopenbabel.so.5:_ZN9OpenBabel10OBGridDataD0Ev
libopenbabel.so.5:_ZN9OpenBabel10OBGridDataD1Ev
libopenbabel.so.5:_ZN9OpenBabel10OBGridDataD2Ev
libopenbabel.so.5:_ZN9OpenBabel10OBPairDataC1Ev
libopenbabel.so.5:_ZN9OpenBabel10OBPairDataC2Ev
libopenbabel.so.5:_ZN9OpenBabel10OBProxGrid13GetProxVectorEPd
libopenbabel.so.5:_ZN9OpenBabel10OBProxGrid13GetProxVectorEddd
libopenbabel.so.5:_ZN9OpenBabel10OBProxGrid5SetupERNS_5OBMolES2_dRSt6vectorIbSaIbEEd
libopenbabel.so.5:_ZN9OpenBabel10OBProxGrid5SetupERNS_5OBMolES2_dd
libopenbabel.so.5:_ZN9OpenBabel10OBRingData8NextRingERN9__gnu_cxx17__normal_iteratorIPPNS_6OBRingESt6vectorIS4_SaIS4_EEEE
libopenbabel.so.5:_ZN9OpenBabel10OBRingData9BeginRingERN9__gnu_cxx17__normal_iteratorIPPNS_6OBRingESt6vectorIS4_SaIS4_EEEE
libopenbabel.so.5:_ZN9OpenBabel10OBRingDataC1ERKS0_
libopenbabel.so.5:_ZN9OpenBabel10OBRingDataC1Ev
libopenbabel.so.5:_ZN9OpenBabel10OBRingDataC2ERKS0_
libopenbabel.so.5:_ZN9OpenBabel10OBRingDataC2Ev
libopenbabel.so.5:_ZN9OpenBabel10OBRingDataD0Ev
libopenbabel.so.5:_ZN9OpenBabel10OBRingDataD1Ev
libopenbabel.so.5:_ZN9OpenBabel10OBRingDataD2Ev
libopenbabel.so.5:_ZN9OpenBabel10OBRingDataaSERKS0_
libopenbabel.so.5:_ZN9OpenBabel10OBUnitCell12FillUnitCellEPNS_5OBMolE
libopenbabel.so.5:_ZN9OpenBabel10OBUnitCell13GetCellMatrixEv
libopenbabel.so.5:_ZN9OpenBabel10OBUnitCell13GetCellVolumeEv
libopenbabel.so.5:_ZN9OpenBabel10OBUnitCell14GetCellVectorsEv
libopenbabel.so.5:_ZN9OpenBabel10OBUnitCell14GetLatticeTypeEi
libopenbabel.so.5:_ZN9OpenBabel10OBUnitCell14GetLatticeTypeEv
libopenbabel.so.5:_ZN9OpenBabel10OBUnitCell14GetOrthoMatrixEv
libopenbabel.so.5:_ZN9OpenBabel10OBUnitCell19GetFractionalMatrixEv
libopenbabel.so.5:_ZN9OpenBabel10OBUnitCell19GetSpaceGroupNumberENSt7__cxx1112basic_stringIcSt11char_traitsIcESaIcEEE
libopenbabel.so.5:_ZN9OpenBabel10OBUnitCell20GetOrientationMatrixEv
libopenbabel.so.5:_ZN9OpenBabel10OBUnitCell21CartesianToFractionalENS_7vector3E
libopenbabel.so.5:_ZN9OpenBabel10OBUnitCell21FractionalToCartesianENS_7vector3E
libopenbabel.so.5:_ZN9OpenBabel10OBUnitCell23WrapCartesianCoordinateENS_7vector3E
libopenbabel.so.5:_ZN9OpenBabel10OBUnitCell24WrapFractionalCoordinateENS_7vector3E
libopenbabel.so.5:_ZN9OpenBabel10OBUnitCell4GetAEv
libopenbabel.so.5:_ZN9OpenBabel10OBUnitCell4GetBEv
libopenbabel.so.5:_ZN9OpenBabel10OBUnitCell4GetCEv
libopenbabel.so.5:_ZN9OpenBabel10OBUnitCell7GetBetaEv
libopenbabel.so.5:_ZN9OpenBabel10OBUnitCell7SetDataENS_7vector3ES1_S1_
libopenbabel.so.5:_ZN9OpenBabel10OBUnitCell7SetDataENS_9matrix3x3E
libopenbabel.so.5:_ZN9OpenBabel10OBUnitCell7SetDataEdddddd
libopenbabel.so.5:_ZN9OpenBabel10OBUnitCell8GetAlphaEv
libopenbabel.so.5:_ZN9OpenBabel10OBUnitCell8GetGammaEv
libopenbabel.so.5:_ZN9OpenBabel10OBUnitCell9GetOffsetEv
libopenbabel.so.5:_ZN9OpenBabel10OBUnitCell9SetOffsetENS_7vector3E
libopenbabel.so.5:_ZN9OpenBabel10OBUnitCellC1ERKS0_
libopenbabel.so.5:_ZN9OpenBabel10OBUnitCellC1Ev
libopenbabel.so.5:_ZN9OpenBabel10OBUnitCellC2ERKS0_
libopenbabel.so.5:_ZN9OpenBabel10OBUnitCellC2Ev
libopenbabel.so.5:_ZN9OpenBabel10OBUnitCellaSERKS0_
libopenbabel.so.5:_ZN9OpenBabel10OpGenAlias2DoEPNS_6OBBaseEPKcPKSt3mapINSt7__cxx1112basic_stringIcSt11char_traitsIcESaIcEEESB_St4lessISB_ESaISt4pairIKSB_SB_EEEPNS_12OBConversionE
libopenbabel.so.5:_ZN9OpenBabel10Point2LineERKNS_7vector3ES2_S2_
libopenbabel.so.5:_ZN9OpenBabel10SVGPainter10DrawCircleEddd
libopenbabel.so.5:_ZN9OpenBabel10SVGPainter10WriteImageERKNSt7__cxx1112basic_stringIcSt11char_traitsIcESaIcEEE
libopenbabel.so.5:_ZN9OpenBabel10SVGPainter11DrawPolygonERKSt6vectorISt4pairIddESaIS3_EE
libopenbabel.so.5:_ZN9OpenBabel10SVGPainter11GetPenWidthEv
libopenbabel.so.5:_ZN9OpenBabel10SVGPainter11SetFontSizeEi
libopenbabel.so.5:_ZN9OpenBabel10SVGPainter11SetPenColorERKNS_7OBColorE
libopenbabel.so.5:_ZN9OpenBabel10SVGPainter11SetPenWidthEd
libopenbabel.so.5:_ZN9OpenBabel10SVGPainter12SetFillColorERKNS_7OBColorE
libopenbabel.so.5:_ZN9OpenBabel10SVGPainter13SetFillRadialERKNS_7OBColorES3_
libopenbabel.so.5:_ZN9OpenBabel10SVGPainter13SetFontFamilyERKNSt7__cxx1112basic_stringIcSt11char_traitsIcESaIcEEE
libopenbabel.so.5:_ZN9OpenBabel10SVGPainter14GetFontMetricsERKNSt7__cxx1112basic_stringIcSt11char_traitsIcESaIcEEE
libopenbabel.so.5:_ZN9OpenBabel10SVGPainter7MakeRGBB5cxx11ENS_7OBColorE
libopenbabel.so.5:_ZN9OpenBabel10SVGPainter7RGBcodeB5cxx11ENS_7OBColorE
libopenbabel.so.5:_ZN9OpenBabel10SVGPainter8DrawBallEdddd
libopenbabel.so.5:_ZN9OpenBabel10SVGPainter8DrawLineEddddRKSt6vectorIdSaIdEE
libopenbabel.so.5:_ZN9OpenBabel10SVGPainter8DrawTextEddRKNSt7__cxx1112basic_stringIcSt11char_traitsIcESaIcEEE
libopenbabel.so.5:_ZN9OpenBabel10SVGPainter9EndCanvasEv
libopenbabel.so.5:_ZN9OpenBabel10SVGPainter9NewCanvasEdd
libopenbabel.so.5:_ZN9OpenBabel10SVGPainter9WriteDefsEv
libopenbabel.so.5:_ZN9OpenBabel10SVGPainterC1ERSoPSt3setISt4pairINS_7OBColorES4_ESt4lessIS5_ESaIS5_EEbdd
libopenbabel.so.5:_ZN9OpenBabel10SVGPainterC2ERSoPSt3setISt4pairINS_7OBColorES4_ESt4lessIS5_ESaIS5_EEbdd
libopenbabel.so.5:_ZN9OpenBabel10SVGPainterD0Ev
libopenbabel.so.5:_ZN9OpenBabel10SVGPainterD1Ev
libopenbabel.so.5:_ZN9OpenBabel10SVGPainterD2Ev
libopenbabel.so.5:_ZN9OpenBabel10SolveCubicEdddd
libopenbabel.so.5:_ZN9OpenBabel10SpaceGroup12AddTransformERKNSt7__cxx1112basic_stringIcSt11char_traitsIcESaIcEEE
libopenbabel.so.5:_ZN9OpenBabel10SpaceGroup13GetSpaceGroupEPKc
libopenbabel.so.5:_ZN9OpenBabel10SpaceGroup13GetSpaceGroupERKNSt7__cxx1112basic_stringIcSt11char_traitsIcESaIcEEE
libopenbabel.so.5:_ZN9OpenBabel10SpaceGroup13GetSpaceGroupEj
libopenbabel.so.5:_ZN9OpenBabel10SpaceGroup18RegisterSpaceGroupEiz
libopenbabel.so.5:_ZN9OpenBabel10SpaceGroup4FindEPS0_
libopenbabel.so.5:_ZN9OpenBabel10SpaceGroup9SetHMNameERKNSt7__cxx1112basic_stringIcSt11char_traitsIcESaIcEEE
libopenbabel.so.5:_ZN9OpenBabel10SpaceGroupC1Ev
libopenbabel.so.5:_ZN9OpenBabel10SpaceGroupC2Ev
libopenbabel.so.5:_ZN9OpenBabel10SpaceGroupD1Ev
libopenbabel.so.5:_ZN9OpenBabel10SpaceGroupD2Ev
libopenbabel.so.5:_ZN9OpenBabel10StartRule1ERKSt6vectorIjSaIjEERKS0_INS_10StereoRingESaIS5_EERS0_INS_12OBStereoUnitESaISA_EERS2_
libopenbabel.so.5:_ZN9OpenBabel10ThrowErrorEPc
libopenbabel.so.5:_ZN9OpenBabel10ThrowErrorERNSt7__cxx1112basic_stringIcSt11char_traitsIcESaIcEEE
libopenbabel.so.5:_ZN9OpenBabel10VolumeSignERKNS_7vector3ES2_S2_S2_
libopenbabel.so.5:_ZN9OpenBabel10addZeroethENSt7__cxx1112basic_stringIcSt11char_traitsIcESaIcEEES5_
libopenbabel.so.5:_ZN9OpenBabel10isCisTransEPNS_6OBBondERKSt6vectorINS_12OBStereoUnitESaIS3_EE
libopenbabel.so.5:_ZN9OpenBabel10maxValencyEi
libopenbabel.so.5:_ZN9OpenBabel10mergeRingsEPNS_5OBMolERKSt6vectorIjSaIjEE
libopenbabel.so.5:_ZN9OpenBabel10overlappedEddddddddd
libopenbabel.so.5:_ZN9OpenBabel10sortpred_bERKSt4pairISt6vectorINS_7vector3ESaIS2_EEdES7_
libopenbabel.so.5:_ZN9OpenBabel10xDistPointEdddddd
libopenbabel.so.5:_ZN9OpenBabel11OBAngleData14FillAngleArrayEPPiRj
libopenbabel.so.5:_ZN9OpenBabel11OBAngleData14FillAngleArrayERSt6vectorIS1_IjSaIjEESaIS3_EE
libopenbabel.so.5:_ZN9OpenBabel11OBAngleData5ClearEv
libopenbabel.so.5:_ZN9OpenBabel11OBAngleData7SetDataERNS_7OBAngleE
libopenbabel.so.5:_ZN9OpenBabel11OBAngleDataC1ERKS0_
libopenbabel.so.5:_ZN9OpenBabel11OBAngleDataC1Ev
libopenbabel.so.5:_ZN9OpenBabel11OBAngleDataC2ERKS0_
libopenbabel.so.5:_ZN9OpenBabel11OBAngleDataC2Ev
libopenbabel.so.5:_ZN9OpenBabel11OBAngleDataaSERKS0_
libopenbabel.so.5:_ZN9OpenBabel11OBAtomTyper11AssignTypesERNS_5OBMolE
libopenbabel.so.5:_ZN9OpenBabel11OBAtomTyper21AssignImplicitValenceERNS_5OBMolEb
libopenbabel.so.5:_ZN9OpenBabel11OBAtomTyper24CorrectAromaticNitrogensERNS_5OBMolE
libopenbabel.so.5:_ZN9OpenBabel11OBAtomTyper9AssignHybERNS_5OBMolE
libopenbabel.so.5:_ZN9OpenBabel11OBAtomTyper9ParseLineEPKc
libopenbabel.so.5:_ZN9OpenBabel11OBAtomTyperC1Ev
libopenbabel.so.5:_ZN9OpenBabel11OBAtomTyperC2Ev
libopenbabel.so.5:_ZN9OpenBabel11OBAtomTyperD0Ev
libopenbabel.so.5:_ZN9OpenBabel11OBAtomTyperD1Ev
libopenbabel.so.5:_ZN9OpenBabel11OBAtomTyperD2Ev
libopenbabel.so.5:_ZN9OpenBabel11OBBondTyper26AssignFunctionalGroupBondsERNS_5OBMolE
libopenbabel.so.5:_ZN9OpenBabel11OBBondTyper9ParseLineEPKc
libopenbabel.so.5:_ZN9OpenBabel11OBBondTyperC1Ev
libopenbabel.so.5:_ZN9OpenBabel11OBBondTyperC2Ev
libopenbabel.so.5:_ZN9OpenBabel11OBBondTyperD0Ev
libopenbabel.so.5:_ZN9OpenBabel11OBBondTyperD1Ev
libopenbabel.so.5:_ZN9OpenBabel11OBBondTyperD2Ev
libopenbabel.so.5:_ZN9OpenBabel11OBFloatGrid11InterpolateEddd
libopenbabel.so.5:_ZN9OpenBabel11OBFloatGrid13CoordsToIndexEPiPd
libopenbabel.so.5:_ZN9OpenBabel11OBFloatGrid13CoordsToIndexEddd
libopenbabel.so.5:_ZN9OpenBabel11OBFloatGrid13GetDataVectorEv
libopenbabel.so.5:_ZN9OpenBabel11OBFloatGrid13IndexToCoordsEiRdS1_S1_
libopenbabel.so.5:_ZN9OpenBabel11OBFloatGrid17SetNumberOfPointsEiii
libopenbabel.so.5:_ZN9OpenBabel11OBFloatGrid22InterpolateDerivativesEdddPd
libopenbabel.so.5:_ZN9OpenBabel11OBFloatGrid4InitERNS_5OBMolEdd
libopenbabel.so.5:_ZN9OpenBabel11OBFloatGrid6InjectEddd
libopenbabel.so.5:_ZN9OpenBabel11OBFloatGrid7SetValsERKSt6vectorIdSaIdEE
libopenbabel.so.5:_ZN9OpenBabel11OBFloatGrid8SetXAxisENS_7vector3E
libopenbabel.so.5:_ZN9OpenBabel11OBFloatGrid8SetYAxisENS_7vector3E
libopenbabel.so.5:_ZN9OpenBabel11OBFloatGrid8SetZAxisENS_7vector3E
libopenbabel.so.5:_ZN9OpenBabel11OBFloatGrid9SetLimitsEPKdS2_S2_S2_
libopenbabel.so.5:_ZN9OpenBabel11OBFloatGrid9SetLimitsERKNS_7vector3ES3_S3_S3_
libopenbabel.so.5:_ZN9OpenBabel11OBRingTyper11AssignTypesERNS_5OBMolE
libopenbabel.so.5:_ZN9OpenBabel11OBRingTyper9ParseLineEPKc
libopenbabel.so.5:_ZN9OpenBabel11OBRingTyperC1Ev
libopenbabel.so.5:_ZN9OpenBabel11OBRingTyperC2Ev
libopenbabel.so.5:_ZN9OpenBabel11OBRingTyperD0Ev
libopenbabel.so.5:_ZN9OpenBabel11OBRingTyperD1Ev
libopenbabel.so.5:_ZN9OpenBabel11OBRingTyperD2Ev
libopenbabel.so.5:_ZN9OpenBabel11OBRotorList10FindRotorsERNS_5OBMolEb
libopenbabel.so.5:_ZN9OpenBabel11OBRotorList11IsFixedBondEPNS_6OBBondE
libopenbabel.so.5:_ZN9OpenBabel11OBRotorList11SetRotAtomsERNS_5OBMolE
libopenbabel.so.5:_ZN9OpenBabel11OBRotorList12SetEvalAtomsERNS_5OBMolE
libopenbabel.so.5:_ZN9OpenBabel11OBRotorList13AssignTorValsERNS_5OBMolE
libopenbabel.so.5:_ZN9OpenBabel11OBRotorList13RemoveSymValsERNS_5OBMolE
libopenbabel.so.5:_ZN9OpenBabel11OBRotorList16SetRotAtomsByFixERNS_5OBMolE
libopenbabel.so.5:_ZN9OpenBabel11OBRotorList5ClearEv
libopenbabel.so.5:_ZN9OpenBabel11OBRotorList5SetupERNS_5OBMolEb
libopenbabel.so.5:_ZN9OpenBabel11OBRotorListC1Ev
libopenbabel.so.5:_ZN9OpenBabel11OBRotorListC2Ev
libopenbabel.so.5:_ZN9OpenBabel11OBRotorListD1Ev
libopenbabel.so.5:_ZN9OpenBabel11OBRotorListD2Ev
libopenbabel.so.5:_ZN9OpenBabel11OBTypeTable11GetFromTypeB5cxx11Ev
libopenbabel.so.5:_ZN9OpenBabel11OBTypeTable11SetFromTypeEPKc
libopenbabel.so.5:_ZN9OpenBabel11OBTypeTable9GetToTypeB5cxx11Ev
libopenbabel.so.5:_ZN9OpenBabel11OBTypeTable9ParseLineEPKc
libopenbabel.so.5:_ZN9OpenBabel11OBTypeTable9SetToTypeEPKc
libopenbabel.so.5:_ZN9OpenBabel11OBTypeTable9TranslateEPcPKc
libopenbabel.so.5:_ZN9OpenBabel11OBTypeTable9TranslateERKNSt7__cxx1112basic_stringIcSt11char_traitsIcESaIcEEE
libopenbabel.so.5:_ZN9OpenBabel11OBTypeTable9TranslateERNSt7__cxx1112basic_stringIcSt11char_traitsIcESaIcEEERKS6_
libopenbabel.so.5:_ZN9OpenBabel11OBTypeTableC1Ev
libopenbabel.so.5:_ZN9OpenBabel11OBTypeTableC2Ev
libopenbabel.so.5:_ZN9OpenBabel11Point2PlaneENS_7vector3ES0_S0_S0_
libopenbabel.so.5:_ZN9OpenBabel11SolveLinearEdd
libopenbabel.so.5:_ZN9OpenBabel11SpaceGroups9ParseLineEPKc
libopenbabel.so.5:_ZN9OpenBabel11SpaceGroupsC1Ev
libopenbabel.so.5:_ZN9OpenBabel11SpaceGroupsC2Ev
libopenbabel.so.5:_ZN9OpenBabel11SpaceGroupsD0Ev
libopenbabel.so.5:_ZN9OpenBabel11SpaceGroupsD1Ev
libopenbabel.so.5:_ZN9OpenBabel11SpaceGroupsD2Ev
libopenbabel.so.5:_ZN9OpenBabel11TSingleAtom14atomEquivalentEPS0_S1_iibb
libopenbabel.so.5:_ZN9OpenBabel11TSingleAtom16chargeConversionEv
libopenbabel.so.5:_ZN9OpenBabel11TSingleAtom17valencyConversionEv
libopenbabel.so.5:_ZN9OpenBabel11TSingleAtom18chargeDeltaValencyEi
libopenbabel.so.5:_ZN9OpenBabel11TSingleAtom5cloneEv
libopenbabel.so.5:_ZN9OpenBabel11TSingleAtom7encoderEv
libopenbabel.so.5:_ZN9OpenBabel11TSingleAtom8atomCopyEPS0_
libopenbabel.so.5:_ZN9OpenBabel11TSingleAtom9allAtAtomEv
libopenbabel.so.5:_ZN9OpenBabel11TSingleBond10getValenceEv
libopenbabel.so.5:_ZN9OpenBabel11TSingleBond14bondConversionEv
libopenbabel.so.5:_ZN9OpenBabel11TSingleBond14bondEquivalentEPS0_S1_
libopenbabel.so.5:_ZN9OpenBabel11TSingleBond5cloneEv
libopenbabel.so.5:_ZN9OpenBabel11TSingleBond8bondCopyEPS0_
libopenbabel.so.5:_ZN9OpenBabel11WriteTitlesERSoRNS_5OBMolE
libopenbabel.so.5:_ZN9OpenBabel11addFragmentEPNS_5OBMolES1_iiiib
libopenbabel.so.5:_ZN9OpenBabel11getAtomMCDLB5cxx11EPNS_5OBMolEiSt6vectorIiSaIiEES4_S4_S4_
libopenbabel.so.5:_ZN9OpenBabel11getBondMCDLB5cxx11EPNS_5OBMolEiiSt6vectorIiSaIiEES4_PA4_iS4_S4_
libopenbabel.so.5:_ZN9OpenBabel11getFragmentEPNS_6OBAtomERKNS_8OBBitVecERKSt6vectorIPNS_6OBBondESaIS7_EE
libopenbabel.so.5:_ZN9OpenBabel11getFragmentEPNS_6OBAtomES1_
libopenbabel.so.5:_ZN9OpenBabel11getFragmentEPNS_6OBAtomES1_RKNS_8OBBitVecE
libopenbabel.so.5:_ZN9OpenBabel11groupRedrawEPNS_5OBMolEiib
libopenbabel.so.5:_ZN9OpenBabel11mult_matrixERSt6vectorIS0_IdSaIdEESaIS2_EES5_S5_
libopenbabel.so.5:_ZN9OpenBabel11prepareTestEPNS_5OBMolERSo
libopenbabel.so.5:_ZN9OpenBabel11transform3d9NormalizeEv
libopenbabel.so.5:_ZN9OpenBabel11trim_spacesEPc
libopenbabel.so.5:_ZN9OpenBabel11vectorAngleERKNS_7vector3ES2_
libopenbabel.so.5:_ZN9OpenBabel12CanBeSquaredERKd
libopenbabel.so.5:_ZN9OpenBabel12CompareRotorERKSt4pairIiiES3_
libopenbabel.so.5:_ZN9OpenBabel12ExpandKekuleERNS_5OBMolERSt6vectorIPNS_6OBAtomESaIS4_EEN9__gnu_cxx17__normal_iteratorIPS4_S6_EERS2_IiSaIiEEb
libopenbabel.so.5:_ZN9OpenBabel12FindSymmetryEPNS_5OBMolE
libopenbabel.so.5:_ZN9OpenBabel12GetChiralityERNS_5OBMolERSt6vectorIiSaIiEE
libopenbabel.so.5:_ZN9OpenBabel12NewExtensionERNSt7__cxx1112basic_stringIcSt11char_traitsIcESaIcEEEPc
libopenbabel.so.5:_ZN9OpenBabel12OBChiralData10AddAtomRefEjNS_11atomreftypeE
libopenbabel.so.5:_ZN9OpenBabel12OBChiralData10GetAtomRefEiNS_11atomreftypeE
libopenbabel.so.5:_ZN9OpenBabel12OBChiralData12SetAtom4RefsESt6vectorIjSaIjEENS_11atomreftypeE
libopenbabel.so.5:_ZN9OpenBabel12OBChiralData5ClearEv
libopenbabel.so.5:_ZN9OpenBabel12OBChiralDataC1ERKS0_
libopenbabel.so.5:_ZN9OpenBabel12OBChiralDataC1Ev
libopenbabel.so.5:_ZN9OpenBabel12OBChiralDataC2ERKS0_
libopenbabel.so.5:_ZN9OpenBabel12OBChiralDataC2Ev
libopenbabel.so.5:_ZN9OpenBabel12OBChiralDataaSERKS0_
libopenbabel.so.5:_ZN9OpenBabel12OBCompareIntERKiS1_
libopenbabel.so.5:_ZN9OpenBabel12OBConversion10FindFormatENSt7__cxx1112basic_stringIcSt11char_traitsIcESaIcEEE
libopenbabel.so.5:_ZN9OpenBabel12OBConversion10FindFormatEPKc
libopenbabel.so.5:_ZN9OpenBabel12OBConversion10ReadStringEPNS_6OBBaseENSt7__cxx1112basic_stringIcSt11char_traitsIcESaIcEEE
libopenbabel.so.5:_ZN9OpenBabel12OBConversion10SetOptionsEPKcNS0_11Option_typeE
libopenbabel.so.5:_ZN9OpenBabel12OBConversion11CopyOptionsEPS0_NS0_11Option_typeE
libopenbabel.so.5:_ZN9OpenBabel12OBConversion11DescriptionEv
libopenbabel.so.5:_ZN9OpenBabel12OBConversion11FullConvertERSt6vectorINSt7__cxx1112basic_stringIcSt11char_traitsIcESaIcEEESaIS7_EERS7_SA_
libopenbabel.so.5:_ZN9OpenBabel12OBConversion11SetInFormatEPKcb
libopenbabel.so.5:_ZN9OpenBabel12OBConversion11SetInFormatEPNS_8OBFormatEb
libopenbabel.so.5:_ZN9OpenBabel12OBConversion11SetInStreamEPSib
libopenbabel.so.5:_ZN9OpenBabel12OBConversion11StreamState10pushOutputERS0_
libopenbabel.so.5:_ZN9OpenBabel12OBConversion11StreamState8popInputERS0_
libopenbabel.so.5:_ZN9OpenBabel12OBConversion11StreamState9popOutputERS0_
libopenbabel.so.5:_ZN9OpenBabel12OBConversion11StreamState9pushInputERS0_
libopenbabel.so.5:_ZN9OpenBabel12OBConversion11WriteStringB5cxx11EPNS_6OBBaseEb
libopenbabel.so.5:_ZN9OpenBabel12OBConversion12CloseOutFileEv
libopenbabel.so.5:_ZN9OpenBabel12OBConversion12IsFirstInputEv
libopenbabel.so.5:_ZN9OpenBabel12OBConversion12RemoveOptionEPKcNS0_11Option_typeE
libopenbabel.so.5:_ZN9OpenBabel12OBConversion12SetOutFormatEPKcb
libopenbabel.so.5:_ZN9OpenBabel12OBConversion12SetOutFormatEPNS_8OBFormatEb
libopenbabel.so.5:_ZN9OpenBabel12OBConversion12SetOutStreamEPSob
libopenbabel.so.5:_ZN9OpenBabel12OBConversion13AddChemObjectEPNS_6OBBaseE
libopenbabel.so.5:_ZN9OpenBabel12OBConversion13BatchFileNameERNSt7__cxx1112basic_stringIcSt11char_traitsIcESaIcEEES7_
libopenbabel.so.5:_ZN9OpenBabel12OBConversion13FormatFromExtENSt7__cxx1112basic_stringIcSt11char_traitsIcESaIcEEE
libopenbabel.so.5:_ZN9OpenBabel12OBConversion13FormatFromExtENSt7__cxx1112basic_stringIcSt11char_traitsIcESaIcEEERb
libopenbabel.so.5:_ZN9OpenBabel12OBConversion13FormatFromExtEPKc
libopenbabel.so.5:_ZN9OpenBabel12OBConversion13FormatFromExtEPKcRb
libopenbabel.so.5:_ZN9OpenBabel12OBConversion13GetChemObjectEv
libopenbabel.so.5:_ZN9OpenBabel12OBConversion13GetNextFormatERSt23_Rb_tree_const_iteratorISt4pairIKPKcPNS_8OBPluginEEERS4_RPNS_8OBFormatE
libopenbabel.so.5:_ZN9OpenBabel12OBConversion13SetFirstInputEb
libopenbabel.so.5:_ZN9OpenBabel12OBConversion14FormatFromMIMEEPKc
libopenbabel.so.5:_ZN9OpenBabel12OBConversion14RegisterFormatEPKcPNS_8OBFormatES2_
libopenbabel.so.5:_ZN9OpenBabel12OBConversion14SetOutputIndexEi
libopenbabel.so.5:_ZN9OpenBabel12OBConversion14SetStartAndEndEv
libopenbabel.so.5:_ZN9OpenBabel12OBConversion15GetOptionParamsENSt7__cxx1112basic_stringIcSt11char_traitsIcESaIcEEENS0_11Option_typeE
libopenbabel.so.5:_ZN9OpenBabel12OBConversion15NumInputObjectsEv
libopenbabel.so.5:_ZN9OpenBabel12OBConversion16OpenAndSetFormatEbPSt14basic_ifstreamIcSt11char_traitsIcEEPNSt7__cxx1118basic_stringstreamIcS3_SaIcEEE
libopenbabel.so.5:_ZN9OpenBabel12OBConversion16OptionParamArrayB5cxx11ENS0_11Option_typeE
libopenbabel.so.5:_ZN9OpenBabel12OBConversion16SetOneObjectOnlyEb
libopenbabel.so.5:_ZN9OpenBabel12OBConversion17OpenInAndOutFilesENSt7__cxx1112basic_stringIcSt11char_traitsIcESaIcEEES6_
libopenbabel.so.5:_ZN9OpenBabel12OBConversion18SetInAndOutFormatsEPKcS2_bb
libopenbabel.so.5:_ZN9OpenBabel12OBConversion18SetInAndOutFormatsEPNS_8OBFormatES2_bb
libopenbabel.so.5:_ZN9OpenBabel12OBConversion18SetMoreFilesToComeEv
libopenbabel.so.5:_ZN9OpenBabel12OBConversion19IncrementedFileNameERNSt7__cxx1112basic_stringIcSt11char_traitsIcESaIcEEEi
libopenbabel.so.5:_ZN9OpenBabel12OBConversion19RegisterOptionParamENSt7__cxx1112basic_stringIcSt11char_traitsIcESaIcEEEPNS_8OBFormatEiNS0_11Option_typeE
libopenbabel.so.5:_ZN9OpenBabel12OBConversion21ReportNumberConvertedEiPNS_8OBFormatE
libopenbabel.so.5:_ZN9OpenBabel12OBConversion23CheckForUnintendedBatchERKNSt7__cxx1112basic_stringIcSt11char_traitsIcESaIcEEES8_
libopenbabel.so.5:_ZN9OpenBabel12OBConversion23GetSupportedInputFormatB5cxx11Ev
libopenbabel.so.5:_ZN9OpenBabel12OBConversion24GetSupportedOutputFormatB5cxx11Ev
libopenbabel.so.5:_ZN9OpenBabel12OBConversion4ReadEPNS_6OBBaseEPSi
libopenbabel.so.5:_ZN9OpenBabel12OBConversion5WriteEPNS_6OBBaseEPSo
libopenbabel.so.5:_ZN9OpenBabel12OBConversion6IsLastEv
libopenbabel.so.5:_ZN9OpenBabel12OBConversion7ConvertEPSiPSo
libopenbabel.so.5:_ZN9OpenBabel12OBConversion7ConvertEv
libopenbabel.so.5:_ZN9OpenBabel12OBConversion8IsOptionEPKcNS0_11Option_typeE
libopenbabel.so.5:_ZN9OpenBabel12OBConversion8ReadFileEPNS_6OBBaseENSt7__cxx1112basic_stringIcSt11char_traitsIcESaIcEEE
libopenbabel.so.5:_ZN9OpenBabel12OBConversion9AddOptionEPKcNS0_11Option_typeES2_
libopenbabel.so.5:_ZN9OpenBabel12OBConversion9WriteFileEPNS_6OBBaseENSt7__cxx1112basic_stringIcSt11char_traitsIcESaIcEEE
libopenbabel.so.5:_ZN9OpenBabel12OBConversionC1ENSt7__cxx1112basic_stringIcSt11char_traitsIcESaIcEEES6_
libopenbabel.so.5:_ZN9OpenBabel12OBConversionC1EPSiPSo
libopenbabel.so.5:_ZN9OpenBabel12OBConversionC1ERKS0_
libopenbabel.so.5:_ZN9OpenBabel12OBConversionC2ENSt7__cxx1112basic_stringIcSt11char_traitsIcESaIcEEES6_
libopenbabel.so.5:_ZN9OpenBabel12OBConversionC2EPSiPSo
libopenbabel.so.5:_ZN9OpenBabel12OBConversionC2ERKS0_
libopenbabel.so.5:_ZN9OpenBabel12OBConversionD0Ev
libopenbabel.so.5:_ZN9OpenBabel12OBConversionD1Ev
libopenbabel.so.5:_ZN9OpenBabel12OBConversionD2Ev
libopenbabel.so.5:_ZN9OpenBabel12OBConversionaSERKS0_
libopenbabel.so.5:_ZN9OpenBabel12OBDescriptor13AddPropertiesEPNS_6OBBaseERKNSt7__cxx1112basic_stringIcSt11char_traitsIcESaIcEEE
libopenbabel.so.5:_ZN9OpenBabel12OBDescriptor13FilterCompareEPNS_6OBBaseERSib
libopenbabel.so.5:_ZN9OpenBabel12OBDescriptor13GetIdentifierB5cxx11ERSi
libopenbabel.so.5:_ZN9OpenBabel12OBDescriptor13MatchPairDataEPNS_6OBBaseERNSt7__cxx1112basic_stringIcSt11char_traitsIcESaIcEEE
libopenbabel.so.5:_ZN9OpenBabel12OBDescriptor14GetStringValueEPNS_6OBBaseERNSt7__cxx1112basic_stringIcSt11char_traitsIcESaIcEEEPS8_
libopenbabel.so.5:_ZN9OpenBabel12OBDescriptor14ParsePredicateERSiRcS2_RNSt7__cxx1112basic_stringIcSt11char_traitsIcESaIcEEE
libopenbabel.so.5:_ZN9OpenBabel12OBDescriptor14PredictAndSaveEPNS_6OBBaseEPNSt7__cxx1112basic_stringIcSt11char_traitsIcESaIcEEE
libopenbabel.so.5:_ZN9OpenBabel12OBDescriptor16DeletePropertiesEPNS_6OBBaseERKNSt7__cxx1112basic_stringIcSt11char_traitsIcESaIcEEE
libopenbabel.so.5:_ZN9OpenBabel12OBDescriptor20ReadStringFromFilterERSiRNSt7__cxx1112basic_stringIcSt11char_traitsIcESaIcEEE
libopenbabel.so.5:_ZN9OpenBabel12OBDescriptor23CompareStringWithFilterERSiRNSt7__cxx1112basic_stringIcSt11char_traitsIcESaIcEEEbb
libopenbabel.so.5:_ZN9OpenBabel12OBDescriptor7CompareEPNS_6OBBaseERSibPNSt7__cxx1112basic_stringIcSt11char_traitsIcESaIcEEE
libopenbabel.so.5:_ZN9OpenBabel12OBDescriptor7DisplayERNSt7__cxx1112basic_stringIcSt11char_traitsIcESaIcEEEPKcS9_
libopenbabel.so.5:_ZN9OpenBabel12OBDescriptor9GetValuesEPNS_6OBBaseERKNSt7__cxx1112basic_stringIcSt11char_traitsIcESaIcEEE
libopenbabel.so.5:_ZN9OpenBabel12OBForceField10LineSearchEPNS_6OBAtomERNS_7vector3E
libopenbabel.so.5:_ZN9OpenBabel12OBForceField10LineSearchEPdS1_
libopenbabel.so.5:_ZN9OpenBabel12OBForceField10PrintTypesEv
libopenbabel.so.5:_ZN9OpenBabel12OBForceField10SetFixAtomEi
libopenbabel.so.5:_ZN9OpenBabel12OBForceField10SetLogFileEPSo
libopenbabel.so.5:_ZN9OpenBabel12OBForceField11ClearGroupsEv
libopenbabel.so.5:_ZN9OpenBabel12OBForceField11GetNumPairsEv
libopenbabel.so.5:_ZN9OpenBabel12OBForceField11SetLogLevelEi
libopenbabel.so.5:_ZN9OpenBabel12OBForceField11VectorAngleEPdS1_S1_
libopenbabel.so.5:_ZN9OpenBabel12OBForceField12GetAtomTypesERNS_5OBMolE
libopenbabel.so.5:_ZN9OpenBabel12OBForceField12GetParameterEPKcS2_S2_S2_RSt6vectorINS_13OBFFParameterESaIS4_EE
libopenbabel.so.5:_ZN9OpenBabel12OBForceField12GetParameterEiiiiRSt6vectorINS_13OBFFParameterESaIS2_EE
libopenbabel.so.5:_ZN9OpenBabel12OBForceField12IsInSameRingEPNS_6OBAtomES2_
libopenbabel.so.5:_ZN9OpenBabel12OBForceField12UnsetFixAtomEv
libopenbabel.so.5:_ZN9OpenBabel12OBForceField13AddInterGroupERNS_8OBBitVecE
libopenbabel.so.5:_ZN9OpenBabel12OBForceField13AddIntraGroupERNS_8OBBitVecE
libopenbabel.so.5:_ZN9OpenBabel12OBForceField13GetConformersERNS_5OBMolE
libopenbabel.so.5:_ZN9OpenBabel12OBForceField13IsSetupNeededERNS_5OBMolE
libopenbabel.so.5:_ZN9OpenBabel12OBForceField13SetConformersERNS_5OBMolE
libopenbabel.so.5:_ZN9OpenBabel12OBForceField13SetIgnoreAtomEi
libopenbabel.so.5:_ZN9OpenBabel12OBForceField13VectorTorsionEPdS1_S1_S1_
libopenbabel.so.5:_ZN9OpenBabel12OBForceField14AddInterGroupsERNS_8OBBitVecES2_
libopenbabel.so.5:_ZN9OpenBabel12OBForceField14DiverseConfGenEdjdb
libopenbabel.so.5:_ZN9OpenBabel12OBForceField14GetConstraintsEv
libopenbabel.so.5:_ZN9OpenBabel12OBForceField14GetCoordinatesERNS_5OBMolE
libopenbabel.so.5:_ZN9OpenBabel12OBForceField14GetNumVDWPairsEv
libopenbabel.so.5:_ZN9OpenBabel12OBForceField14SetConstraintsERNS_15OBFFConstraintsE
libopenbabel.so.5:_ZN9OpenBabel12OBForceField14SetCoordinatesERNS_5OBMolE
libopenbabel.so.5:_ZN9OpenBabel12OBForceField15DetectExplosionEv
libopenbabel.so.5:_ZN9OpenBabel12OBForceField15FastRotorSearchEb
libopenbabel.so.5:_ZN9OpenBabel12OBForceField15GetParameterIdxEiiiiRSt6vectorINS_13OBFFParameterESaIS2_EE
libopenbabel.so.5:_ZN9OpenBabel12OBForceField15PrintVelocitiesEv
libopenbabel.so.5:_ZN9OpenBabel12OBForceField15SteepestDescentEidi
libopenbabel.so.5:_ZN9OpenBabel12OBForceField15UnsetIgnoreAtomEv
libopenbabel.so.5:_ZN9OpenBabel12OBForceField16DistanceGeometryEv
libopenbabel.so.5:_ZN9OpenBabel12OBForceField17CorrectVelocitiesEv
libopenbabel.so.5:_ZN9OpenBabel12OBForceField17GetPartialChargesERNS_5OBMolE
libopenbabel.so.5:_ZN9OpenBabel12OBForceField17IgnoreCalculationEii
libopenbabel.so.5:_ZN9OpenBabel12OBForceField17IgnoreCalculationEiii
libopenbabel.so.5:_ZN9OpenBabel12OBForceField17IgnoreCalculationEiiii
libopenbabel.so.5:_ZN9OpenBabel12OBForceField17RandomRotorSearchEjjb
libopenbabel.so.5:_ZN9OpenBabel12OBForceField17UpdatePairsSimpleEv
libopenbabel.so.5:_ZN9OpenBabel12OBForceField18ConjugateGradientsEidi
libopenbabel.so.5:_ZN9OpenBabel12OBForceField18GenerateVelocitiesEv
libopenbabel.so.5:_ZN9OpenBabel12OBForceField18LineSearchTakeStepEPdS1_d
libopenbabel.so.5:_ZN9OpenBabel12OBForceField18PrintFormalChargesEv
libopenbabel.so.5:_ZN9OpenBabel12OBForceField18ValidateLineSearchEPNS_6OBAtomERNS_7vector3E
libopenbabel.so.5:_ZN9OpenBabel12OBForceField19NumericalDerivativeEPNS_6OBAtomEi
libopenbabel.so.5:_ZN9OpenBabel12OBForceField19PrintPartialChargesEv
libopenbabel.so.5:_ZN9OpenBabel12OBForceField19VectorOOPDerivativeEPdS1_S1_S1_S1_S1_S1_S1_
libopenbabel.so.5:_ZN9OpenBabel12OBForceField19VectorOOPDerivativeERNS_7vector3ES2_S2_S2_
libopenbabel.so.5:_ZN9OpenBabel12OBForceField19WeightedRotorSearchEjjb
libopenbabel.so.5:_ZN9OpenBabel12OBForceField20Newton2NumLineSearchEPd
libopenbabel.so.5:_ZN9OpenBabel12OBForceField20VectorBondDerivativeEPdS1_S1_S1_
libopenbabel.so.5:_ZN9OpenBabel12OBForceField21SystematicRotorSearchEjb
libopenbabel.so.5:_ZN9OpenBabel12OBForceField21ValidateGradientErrorERNS_7vector3ES2_
libopenbabel.so.5:_ZN9OpenBabel12OBForceField21VectorAngleDerivativeEPdS1_S1_S1_S1_S1_
libopenbabel.so.5:_ZN9OpenBabel12OBForceField21VectorAngleDerivativeERNS_7vector3ES2_S2_
libopenbabel.so.5:_ZN9OpenBabel12OBForceField22VectorLengthDerivativeERNS_7vector3ES2_
libopenbabel.so.5:_ZN9OpenBabel12OBForceField23ValidateSteepestDescentEi
libopenbabel.so.5:_ZN9OpenBabel12OBForceField23VectorTorsionDerivativeEPdS1_S1_S1_S1_S1_S1_S1_
libopenbabel.so.5:_ZN9OpenBabel12OBForceField23VectorTorsionDerivativeERNS_7vector3ES2_S2_S2_
libopenbabel.so.5:_ZN9OpenBabel12OBForceField24GetNumElectrostaticPairsEv
libopenbabel.so.5:_ZN9OpenBabel12OBForceField24VectorDistanceDerivativeEPKdS2_PdS3_
libopenbabel.so.5:_ZN9OpenBabel12OBForceField25NumericalSecondDerivativeEPNS_6OBAtomEi
libopenbabel.so.5:_ZN9OpenBabel12OBForceField25SteepestDescentInitializeEidi
libopenbabel.so.5:_ZN9OpenBabel12OBForceField25SteepestDescentTakeNStepsEi
libopenbabel.so.5:_ZN9OpenBabel12OBForceField26ValidateConjugateGradientsEi
libopenbabel.so.5:_ZN9OpenBabel12OBForceField27MolecularDynamicsTakeNStepsEiddi
libopenbabel.so.5:_ZN9OpenBabel12OBForceField27RandomRotorSearchInitializeEjjb
libopenbabel.so.5:_ZN9OpenBabel12OBForceField28ConjugateGradientsInitializeEidi
libopenbabel.so.5:_ZN9OpenBabel12OBForceField28ConjugateGradientsTakeNStepsEi
libopenbabel.so.5:_ZN9OpenBabel12OBForceField30RandomRotorSearchNextConformerEj
libopenbabel.so.5:_ZN9OpenBabel12OBForceField31SystematicRotorSearchInitializeEjb
libopenbabel.so.5:_ZN9OpenBabel12OBForceField34SystematicRotorSearchNextConformerEj
libopenbabel.so.5:_ZN9OpenBabel12OBForceField5SetupERNS_5OBMolE
libopenbabel.so.5:_ZN9OpenBabel12OBForceField5SetupERNS_5OBMolERNS_15OBFFConstraintsE
libopenbabel.so.5:_ZN9OpenBabel12OBForceField7GetGridEddPKcd
libopenbabel.so.5:_ZN9OpenBabel12OBForceField9HasGroupsEv
libopenbabel.so.5:_ZN9OpenBabel12OBForceField9VectorOOPEPdS1_S1_S1_
libopenbabel.so.5:_ZN9OpenBabel12OBPointGroup10SymmetrizeEPNS_5OBMolE
libopenbabel.so.5:_ZN9OpenBabel12OBPointGroup18IdentifyPointGroupEd
libopenbabel.so.5:_ZN9OpenBabel12OBPointGroup18IdentifyPointGroupEv
libopenbabel.so.5:_ZN9OpenBabel12OBPointGroup24IdentifyPointGroupSymbolEd
libopenbabel.so.5:_ZN9OpenBabel12OBPointGroup5SetupEPNS_5OBMolE
libopenbabel.so.5:_ZN9OpenBabel12OBPointGroupC1Ev
libopenbabel.so.5:_ZN9OpenBabel12OBPointGroupC2Ev
libopenbabel.so.5:_ZN9OpenBabel12OBPointGroupD1Ev
libopenbabel.so.5:_ZN9OpenBabel12OBPointGroupD2Ev
libopenbabel.so.5:_ZN9OpenBabel12OBRingSearch10WriteRingsEv
libopenbabel.so.5:_ZN9OpenBabel12OBRingSearch14SaveUniqueRingERSt5dequeIiSaIiEES4_
libopenbabel.so.5:_ZN9OpenBabel12OBRingSearch15RemoveRedundantEi
libopenbabel.so.5:_ZN9OpenBabel12OBRingSearch18AddRingFromClosureERNS_5OBMolEPNS_6OBBondE
libopenbabel.so.5:_ZN9OpenBabel12OBRingSearchD1Ev
libopenbabel.so.5:_ZN9OpenBabel12OBRingSearchD2Ev
libopenbabel.so.5:_ZN9OpenBabel12OBRotorRules18GetRotorIncrementsERNS_5OBMolEPNS_6OBBondEPiRSt6vectorIdSaIdEERd
libopenbabel.so.5:_ZN9OpenBabel12OBRotorRules9ParseLineEPKc
libopenbabel.so.5:_ZN9OpenBabel12OBRotorRulesC1Ev
libopenbabel.so.5:_ZN9OpenBabel12OBRotorRulesC2Ev
libopenbabel.so.5:_ZN9OpenBabel12OBRotorRulesD0Ev
libopenbabel.so.5:_ZN9OpenBabel12OBRotorRulesD1Ev
libopenbabel.so.5:_ZN9OpenBabel12OBRotorRulesD2Ev
libopenbabel.so.5:_ZN9OpenBabel12OpenDatafileERSt14basic_ifstreamIcSt11char_traitsIcEERKNSt7__cxx1112basic_stringIcS2_SaIcEEESA_
libopenbabel.so.5:_ZN9OpenBabel12StereoFrom0DEPNS_5OBMolE
libopenbabel.so.5:_ZN9OpenBabel12StereoFrom2DEPNS_5OBMolEPSt3mapIPNS_6OBBondENS_8OBStereo13BondDirectionESt4lessIS4_ESaISt4pairIKS4_S6_EEEb
libopenbabel.so.5:_ZN9OpenBabel12StereoFrom3DEPNS_5OBMolEb
libopenbabel.so.5:_ZN9OpenBabel12TriangleSignERKNS_7vector3ES2_S2_
libopenbabel.so.5:_ZN9OpenBabel12canonizeMCDLENSt7__cxx1112basic_stringIcSt11char_traitsIcESaIcEEERSt6vectorIS5_SaIS5_EE
libopenbabel.so.5:_ZN9OpenBabel12changeParityENSt7__cxx1112basic_stringIcSt11char_traitsIcESaIcEEE
libopenbabel.so.5:_ZN9OpenBabel12compareAtomsEiiSt6vectorIPS0_IiSaIiEESaIS3_EE
libopenbabel.so.5:_ZN9OpenBabel12expand_cycleEPNS_5OBMolEPNS_6OBAtomERNS_8OBBitVecES5_RKS4_iRNS_8Kekulize7TimeoutEii
libopenbabel.so.5:_ZN9OpenBabel12parseFormulaENSt7__cxx1112basic_stringIcSt11char_traitsIcESaIcEEERSt6vectorIiSaIiEERi
libopenbabel.so.5:_ZN9OpenBabel12print_matrixERSt6vectorIS0_IdSaIdEESaIS2_EE
libopenbabel.so.5:_ZN9OpenBabel13CleanAtomTypeEPc
libopenbabel.so.5:_ZN9OpenBabel13DoubleModulusEPNS_10DoubleTypeEj
libopenbabel.so.5:_ZN9OpenBabel13GetParity4RefESt6vectorIjSaIjEE
libopenbabel.so.5:_ZN9OpenBabel13OBChargeModel15GetDipoleMomentERNS_5OBMolE
libopenbabel.so.5:_ZN9OpenBabel13OBChargeModel17FillChargeVectorsERNS_5OBMolE
libopenbabel.so.5:_ZN9OpenBabel13OBCommentDataC1ERKS0_
libopenbabel.so.5:_ZN9OpenBabel13OBCommentDataC1Ev
libopenbabel.so.5:_ZN9OpenBabel13OBCommentDataC2ERKS0_
libopenbabel.so.5:_ZN9OpenBabel13OBCommentDataC2Ev
libopenbabel.so.5:_ZN9OpenBabel13OBFingerprint4FoldERSt6vectorIjSaIjEEj
libopenbabel.so.5:_ZN9OpenBabel13OBFingerprint6GetBitERKSt6vectorIjSaIjEEj
libopenbabel.so.5:_ZN9OpenBabel13OBFingerprint6SetBitERSt6vectorIjSaIjEEj
libopenbabel.so.5:_ZN9OpenBabel13OBFingerprint8TanimotoERKSt6vectorIjSaIjEES5_
libopenbabel.so.5:_ZN9OpenBabel13OBGenericDataC1ENSt7__cxx1112basic_stringIcSt11char_traitsIcESaIcEEEjNS_10DataOriginE
libopenbabel.so.5:_ZN9OpenBabel13OBGenericDataC2ENSt7__cxx1112basic_stringIcSt11char_traitsIcESaIcEEEjNS_10DataOriginE
libopenbabel.so.5:_ZN9OpenBabel13OBMolAtomIterC1EPNS_5OBMolE
libopenbabel.so.5:_ZN9OpenBabel13OBMolAtomIterC1ERKS0_
libopenbabel.so.5:_ZN9OpenBabel13OBMolAtomIterC1ERNS_5OBMolE
libopenbabel.so.5:_ZN9OpenBabel13OBMolAtomIterC2EPNS_5OBMolE
libopenbabel.so.5:_ZN9OpenBabel13OBMolAtomIterC2ERKS0_
libopenbabel.so.5:_ZN9OpenBabel13OBMolAtomIterC2ERNS_5OBMolE
libopenbabel.so.5:_ZN9OpenBabel13OBMolAtomIteraSERKS0_
libopenbabel.so.5:_ZN9OpenBabel13OBMolAtomIterppEi
libopenbabel.so.5:_ZN9OpenBabel13OBMolAtomIterppEv
libopenbabel.so.5:_ZN9OpenBabel13OBMolBondIterC1EPNS_5OBMolE
libopenbabel.so.5:_ZN9OpenBabel13OBMolBondIterC1ERKS0_
libopenbabel.so.5:_ZN9OpenBabel13OBMolBondIterC1ERNS_5OBMolE
libopenbabel.so.5:_ZN9OpenBabel13OBMolBondIterC2EPNS_5OBMolE
libopenbabel.so.5:_ZN9OpenBabel13OBMolBondIterC2ERKS0_
libopenbabel.so.5:_ZN9OpenBabel13OBMolBondIterC2ERNS_5OBMolE
libopenbabel.so.5:_ZN9OpenBabel13OBMolBondIteraSERKS0_
libopenbabel.so.5:_ZN9OpenBabel13OBMolBondIterppEi
libopenbabel.so.5:_ZN9OpenBabel13OBMolBondIterppEv
libopenbabel.so.5:_ZN9OpenBabel13OBMolPairIterC1EPNS_5OBMolE
libopenbabel.so.5:_ZN9OpenBabel13OBMolPairIterC1ERKS0_
libopenbabel.so.5:_ZN9OpenBabel13OBMolPairIterC1ERNS_5OBMolE
libopenbabel.so.5:_ZN9OpenBabel13OBMolPairIterC2EPNS_5OBMolE
libopenbabel.so.5:_ZN9OpenBabel13OBMolPairIterC2ERKS0_
libopenbabel.so.5:_ZN9OpenBabel13OBMolPairIterC2ERNS_5OBMolE
libopenbabel.so.5:_ZN9OpenBabel13OBMolPairIteraSERKS0_
libopenbabel.so.5:_ZN9OpenBabel13OBMolPairIterppEv
libopenbabel.so.5:_ZN9OpenBabel13OBMolRingIterC1EPNS_5OBMolE
libopenbabel.so.5:_ZN9OpenBabel13OBMolRingIterC1ERKS0_
libopenbabel.so.5:_ZN9OpenBabel13OBMolRingIterC1ERNS_5OBMolE
libopenbabel.so.5:_ZN9OpenBabel13OBMolRingIterC2EPNS_5OBMolE
libopenbabel.so.5:_ZN9OpenBabel13OBMolRingIterC2ERKS0_
libopenbabel.so.5:_ZN9OpenBabel13OBMolRingIterC2ERNS_5OBMolE
libopenbabel.so.5:_ZN9OpenBabel13OBMolRingIteraSERKS0_
libopenbabel.so.5:_ZN9OpenBabel13OBMolRingIterppEi
libopenbabel.so.5:_ZN9OpenBabel13OBMolRingIterppEv
libopenbabel.so.5:_ZN9OpenBabel13OBOrbitalData16LoadBetaOrbitalsESt6vectorIdSaIdEES1_INSt7__cxx1112basic_stringIcSt11char_traitsIcESaIcEEESaIS9_EEi
libopenbabel.so.5:_ZN9OpenBabel13OBOrbitalData17LoadAlphaOrbitalsESt6vectorIdSaIdEES1_INSt7__cxx1112basic_stringIcSt11char_traitsIcESaIcEEESaIS9_EEi
libopenbabel.so.5:_ZN9OpenBabel13OBOrbitalData23LoadClosedShellOrbitalsESt6vectorIdSaIdEES1_INSt7__cxx1112basic_stringIcSt11char_traitsIcESaIcEEESaIS9_EEi
libopenbabel.so.5:_ZN9OpenBabel13OBResidueData10LookupTypeERKNSt7__cxx1112basic_stringIcSt11char_traitsIcESaIcEEERS6_Ri
libopenbabel.so.5:_ZN9OpenBabel13OBResidueData10SetResNameERKNSt7__cxx1112basic_stringIcSt11char_traitsIcESaIcEEE
libopenbabel.so.5:_ZN9OpenBabel13OBResidueData11AssignBondsERNS_5OBMolERNS_8OBBitVecE
libopenbabel.so.5:_ZN9OpenBabel13OBResidueData8LookupBOERKNSt7__cxx1112basic_stringIcSt11char_traitsIcESaIcEEE
libopenbabel.so.5:_ZN9OpenBabel13OBResidueData8LookupBOERKNSt7__cxx1112basic_stringIcSt11char_traitsIcESaIcEEES8_
libopenbabel.so.5:_ZN9OpenBabel13OBResidueData9ParseLineEPKc
libopenbabel.so.5:_ZN9OpenBabel13OBResidueDataC1Ev
libopenbabel.so.5:_ZN9OpenBabel13OBResidueDataC2Ev
libopenbabel.so.5:_ZN9OpenBabel13OBResidueIterC1EPNS_5OBMolE
libopenbabel.so.5:_ZN9OpenBabel13OBResidueIterC1ERKS0_
libopenbabel.so.5:_ZN9OpenBabel13OBResidueIterC1ERNS_5OBMolE
libopenbabel.so.5:_ZN9OpenBabel13OBResidueIterC2EPNS_5OBMolE
libopenbabel.so.5:_ZN9OpenBabel13OBResidueIterC2ERKS0_
libopenbabel.so.5:_ZN9OpenBabel13OBResidueIterC2ERNS_5OBMolE
libopenbabel.so.5:_ZN9OpenBabel13OBResidueIteraSERKS0_
libopenbabel.so.5:_ZN9OpenBabel13OBResidueIterppEi
libopenbabel.so.5:_ZN9OpenBabel13OBResidueIterppEv
libopenbabel.so.5:_ZN9OpenBabel13OBRotamerList10AddRotamerEPd
libopenbabel.so.5:_ZN9OpenBabel13OBRotamerList10AddRotamerEPh
libopenbabel.so.5:_ZN9OpenBabel13OBRotamerList10AddRotamerEPi
libopenbabel.so.5:_ZN9OpenBabel13OBRotamerList10AddRotamerESt6vectorIiSaIiEE
libopenbabel.so.5:_ZN9OpenBabel13OBRotamerList11AddRotamersEPhi
libopenbabel.so.5:_ZN9OpenBabel13OBRotamerList19CreateConformerListERNS_5OBMolE
libopenbabel.so.5:_ZN9OpenBabel13OBRotamerList19ExpandConformerListERNS_5OBMolERSt6vectorIPdSaIS4_EE
libopenbabel.so.5:_ZN9OpenBabel13OBRotamerList21SetBaseCoordinateSetsESt6vectorIPdSaIS2_EEj
libopenbabel.so.5:_ZN9OpenBabel13OBRotamerList21SetCurrentCoordinatesERNS_5OBMolESt6vectorIiSaIiEE
libopenbabel.so.5:_ZN9OpenBabel13OBRotamerList5SetupERNS_5OBMolEPhi
libopenbabel.so.5:_ZN9OpenBabel13OBRotamerList5SetupERNS_5OBMolERNS_11OBRotorListE
libopenbabel.so.5:_ZN9OpenBabel13OBRotamerListD0Ev
libopenbabel.so.5:_ZN9OpenBabel13OBRotamerListD1Ev
libopenbabel.so.5:_ZN9OpenBabel13OBRotamerListD2Ev
libopenbabel.so.5:_ZN9OpenBabel13OBTorsionData16FillTorsionArrayERSt6vectorIS1_IjSaIjEESaIS3_EE
libopenbabel.so.5:_ZN9OpenBabel13OBTorsionData5ClearEv
libopenbabel.so.5:_ZN9OpenBabel13OBTorsionData7SetDataERNS_9OBTorsionE
libopenbabel.so.5:_ZN9OpenBabel13OBTorsionDataC1ERKS0_
libopenbabel.so.5:_ZN9OpenBabel13OBTorsionDataC1Ev
libopenbabel.so.5:_ZN9OpenBabel13OBTorsionDataC2ERKS0_
libopenbabel.so.5:_ZN9OpenBabel13OBTorsionDataC2Ev
libopenbabel.so.5:_ZN9OpenBabel13OBTorsionDataaSERKS0_
libopenbabel.so.5:_ZN9OpenBabel13OBVirtualBondC1Eiiii
libopenbabel.so.5:_ZN9OpenBabel13OBVirtualBondC1Ev
libopenbabel.so.5:_ZN9OpenBabel13OBVirtualBondC2Eiiii
libopenbabel.so.5:_ZN9OpenBabel13OBVirtualBondC2Ev
libopenbabel.so.5:_ZN9OpenBabel13analizeParityENSt7__cxx1112basic_stringIcSt11char_traitsIcESaIcEEE
libopenbabel.so.5:_ZN9OpenBabel13center_coordsEPdj
libopenbabel.so.5:_ZN9OpenBabel13getAtomSymbolB5cxx11ERNS_15TSimpleMoleculeEi
libopenbabel.so.5:_ZN9OpenBabel13getAtomSymbolERNS_15TSimpleMoleculeEiiiNSt7__cxx1112basic_stringIcSt11char_traitsIcESaIcEEE
libopenbabel.so.5:_ZN9OpenBabel13invert_matrixERSt6vectorIS0_IdSaIdEESaIS2_EERd
libopenbabel.so.5:_ZN9OpenBabel13isTetrahedralEPNS_6OBAtomERKSt6vectorINS_12OBStereoUnitESaIS3_EE
libopenbabel.so.5:_ZN9OpenBabel13mult_matrix_fEPdS0_S0_ii
libopenbabel.so.5:_ZN9OpenBabel13removeZeroethENSt7__cxx1112basic_stringIcSt11char_traitsIcESaIcEEE
libopenbabel.so.5:_ZN9OpenBabel13signed_volumeERKNS_7vector3ES2_S2_S2_
libopenbabel.so.5:_ZN9OpenBabel14CisTransFrom0DEPNS_5OBMolERKSt6vectorINS_12OBStereoUnitESaIS3_EEb
libopenbabel.so.5:_ZN9OpenBabel14CisTransFrom2DEPNS_5OBMolERKSt6vectorINS_12OBStereoUnitESaIS3_EEPKSt3mapIPNS_6OBBondENS_8OBStereo13BondDirectionESt4lessISA_ESaISt4pairIKSA_SC_EEEb
libopenbabel.so.5:_ZN9OpenBabel14CisTransFrom3DEPNS_5OBMolERKSt6vectorINS_12OBStereoUnitESaIS3_EEb
libopenbabel.so.5:_ZN9OpenBabel14DoubleMultiplyEjjPNS_10DoubleTypeE
libopenbabel.so.5:_ZN9OpenBabel14GasteigerStateC1Ev
libopenbabel.so.5:_ZN9OpenBabel14GasteigerStateC2Ev
libopenbabel.so.5:_ZN9OpenBabel14OBAtomAtomIterC1EPNS_6OBAtomE
libopenbabel.so.5:_ZN9OpenBabel14OBAtomAtomIterC1ERKS0_
libopenbabel.so.5:_ZN9OpenBabel14OBAtomAtomIterC1ERNS_6OBAtomE
libopenbabel.so.5:_ZN9OpenBabel14OBAtomAtomIterC2EPNS_6OBAtomE
libopenbabel.so.5:_ZN9OpenBabel14OBAtomAtomIterC2ERKS0_
libopenbabel.so.5:_ZN9OpenBabel14OBAtomAtomIterC2ERNS_6OBAtomE
libopenbabel.so.5:_ZN9OpenBabel14OBAtomAtomIteraSERKS0_
libopenbabel.so.5:_ZN9OpenBabel14OBAtomAtomIterppEi
libopenbabel.so.5:_ZN9OpenBabel14OBAtomAtomIterppEv
libopenbabel.so.5:_ZN9OpenBabel14OBAtomBondIterC1EPNS_6OBAtomE
libopenbabel.so.5:_ZN9OpenBabel14OBAtomBondIterC1ERKS0_
libopenbabel.so.5:_ZN9OpenBabel14OBAtomBondIterC1ERNS_6OBAtomE
libopenbabel.so.5:_ZN9OpenBabel14OBAtomBondIterC2EPNS_6OBAtomE
libopenbabel.so.5:_ZN9OpenBabel14OBAtomBondIterC2ERKS0_
libopenbabel.so.5:_ZN9OpenBabel14OBAtomBondIterC2ERNS_6OBAtomE
libopenbabel.so.5:_ZN9OpenBabel14OBAtomBondIteraSERKS0_
libopenbabel.so.5:_ZN9OpenBabel14OBAtomBondIterppEi
libopenbabel.so.5:_ZN9OpenBabel14OBAtomBondIterppEv
libopenbabel.so.5:_ZN9OpenBabel14OBChainsParser10CleanupMolEv
libopenbabel.so.5:_ZN9OpenBabel14OBChainsParser11ParseSmilesEPKci
libopenbabel.so.5:_ZN9OpenBabel14OBChainsParser12RecurseChainERNS_5OBMolEji
libopenbabel.so.5:_ZN9OpenBabel14OBChainsParser13AssignResidueERNS_5OBMolEiii
libopenbabel.so.5:_ZN9OpenBabel14OBChainsParser13DefineMonomerEPPviPKc
libopenbabel.so.5:_ZN9OpenBabel14OBChainsParser14PerceiveChainsERNS_5OBMolEb
libopenbabel.so.5:_ZN9OpenBabel14OBChainsParser15IdentifyElementEPc
libopenbabel.so.5:_ZN9OpenBabel14OBChainsParser15IdentifyResidueEPvRNS_5OBMolEji
libopenbabel.so.5:_ZN9OpenBabel14OBChainsParser15MatchConstraintEPNS_6OBAtomEi
libopenbabel.so.5:_ZN9OpenBabel14OBChainsParser17ConstrainBackboneERNS_5OBMolEPNS_8TemplateEi
libopenbabel.so.5:_ZN9OpenBabel14OBChainsParser17DetermineHetAtomsERNS_5OBMolE
libopenbabel.so.5:_ZN9OpenBabel14OBChainsParser17Match2ConstraintsEPNS_8TemplateEPNS_6OBAtomES4_
libopenbabel.so.5:_ZN9OpenBabel14OBChainsParser17Match3ConstraintsEPNS_8TemplateEPNS_6OBAtomES4_S4_
libopenbabel.so.5:_ZN9OpenBabel14OBChainsParser17Match4ConstraintsEPNS_8TemplateEPNS_6OBAtomES4_S4_S4_
libopenbabel.so.5:_ZN9OpenBabel14OBChainsParser17TraceNucleicChainERNS_5OBMolEji
libopenbabel.so.5:_ZN9OpenBabel14OBChainsParser17TracePeptideChainERNS_5OBMolEji
libopenbabel.so.5:_ZN9OpenBabel14OBChainsParser18DetermineHydrogensERNS_5OBMolE
libopenbabel.so.5:_ZN9OpenBabel14OBChainsParser21SetResidueInformationERNS_5OBMolEb
libopenbabel.so.5:_ZN9OpenBabel14OBChainsParser23ClearResidueInformationERNS_5OBMolE
libopenbabel.so.5:_ZN9OpenBabel14OBChainsParser24DetermineConnectedChainsERNS_5OBMolE
libopenbabel.so.5:_ZN9OpenBabel14OBChainsParser24DetermineNucleicBackboneERNS_5OBMolE
libopenbabel.so.5:_ZN9OpenBabel14OBChainsParser24DeterminePeptideBackboneERNS_5OBMolE
libopenbabel.so.5:_ZN9OpenBabel14OBChainsParser26DetermineNucleicSidechainsERNS_5OBMolE
libopenbabel.so.5:_ZN9OpenBabel14OBChainsParser26DeterminePeptideSidechainsERNS_5OBMolE
libopenbabel.so.5:_ZN9OpenBabel14OBChainsParser8SetupMolERNS_5OBMolE
libopenbabel.so.5:_ZN9OpenBabel14OBChainsParserC1Ev
libopenbabel.so.5:_ZN9OpenBabel14OBChainsParserC2Ev
libopenbabel.so.5:_ZN9OpenBabel14OBChainsParserD1Ev
libopenbabel.so.5:_ZN9OpenBabel14OBChainsParserD2Ev
libopenbabel.so.5:_ZN9OpenBabel14OBDiversePoses18GetHeavyAtomCoordsERKSt6vectorINS_7vector3ESaIS2_EE
libopenbabel.so.5:_ZN9OpenBabel14OBDiversePoses7AddPoseEPdd
libopenbabel.so.5:_ZN9OpenBabel14OBDiversePoses7AddPoseESt6vectorINS_7vector3ESaIS2_EEd
libopenbabel.so.5:_ZN9OpenBabel14OBDiversePoses7GetSizeEv
libopenbabel.so.5:_ZN9OpenBabel14OBDiversePosesC1ERKNS_5OBMolEdb
libopenbabel.so.5:_ZN9OpenBabel14OBDiversePosesC2ERKNS_5OBMolEdb
libopenbabel.so.5:_ZN9OpenBabel14OBElementTable11GetMaxBondsEi
libopenbabel.so.5:_ZN9OpenBabel14OBElementTable12GetAtomicNumENSt7__cxx1112basic_stringIcSt11char_traitsIcESaIcEEERi
libopenbabel.so.5:_ZN9OpenBabel14OBElementTable12GetAtomicNumEPKc
libopenbabel.so.5:_ZN9OpenBabel14OBElementTable12GetAtomicNumEPKcRi
libopenbabel.so.5:_ZN9OpenBabel14OBElementTable13GetElectroNegEi
libopenbabel.so.5:_ZN9OpenBabel14OBElementTable13GetIonizationEi
libopenbabel.so.5:_ZN9OpenBabel14OBElementTable14GetCovalentRadEi
libopenbabel.so.5:_ZN9OpenBabel14OBElementTable15CorrectedVdwRadEii
libopenbabel.so.5:_ZN9OpenBabel14OBElementTable16CorrectedBondRadEii
libopenbabel.so.5:_ZN9OpenBabel14OBElementTable19GetElectronAffinityEi
libopenbabel.so.5:_ZN9OpenBabel14OBElementTable19GetNumberOfElementsEv
libopenbabel.so.5:_ZN9OpenBabel14OBElementTable25GetAllredRochowElectroNegEi
libopenbabel.so.5:_ZN9OpenBabel14OBElementTable6GetRGBEi
libopenbabel.so.5:_ZN9OpenBabel14OBElementTable7GetMassEi
libopenbabel.so.5:_ZN9OpenBabel14OBElementTable7GetNameB5cxx11Ei
libopenbabel.so.5:_ZN9OpenBabel14OBElementTable9GetSymbolEi
libopenbabel.so.5:_ZN9OpenBabel14OBElementTable9GetVdwRadEi
libopenbabel.so.5:_ZN9OpenBabel14OBElementTable9ParseLineEPKc
libopenbabel.so.5:_ZN9OpenBabel14OBElementTableC1Ev
libopenbabel.so.5:_ZN9OpenBabel14OBElementTableC2Ev
libopenbabel.so.5:_ZN9OpenBabel14OBElementTableD0Ev
libopenbabel.so.5:_ZN9OpenBabel14OBElementTableD1Ev
libopenbabel.so.5:_ZN9OpenBabel14OBElementTableD2Ev
libopenbabel.so.5:_ZN9OpenBabel14OBExternalBondC1EPNS_6OBAtomEPNS_6OBBondEi
libopenbabel.so.5:_ZN9OpenBabel14OBExternalBondC1ERKS0_
libopenbabel.so.5:_ZN9OpenBabel14OBExternalBondC2EPNS_6OBAtomEPNS_6OBBondEi
libopenbabel.so.5:_ZN9OpenBabel14OBExternalBondC2ERKS0_
libopenbabel.so.5:_ZN9OpenBabel14OBIsotopeTable12GetExactMassEjj
libopenbabel.so.5:_ZN9OpenBabel14OBIsotopeTable9ParseLineEPKc
libopenbabel.so.5:_ZN9OpenBabel14OBIsotopeTableC1Ev
libopenbabel.so.5:_ZN9OpenBabel14OBIsotopeTableC2Ev
libopenbabel.so.5:_ZN9OpenBabel14OBMolAngleIterC1EPNS_5OBMolE
libopenbabel.so.5:_ZN9OpenBabel14OBMolAngleIterC1ERKS0_
libopenbabel.so.5:_ZN9OpenBabel14OBMolAngleIterC1ERNS_5OBMolE
libopenbabel.so.5:_ZN9OpenBabel14OBMolAngleIterC2EPNS_5OBMolE
libopenbabel.so.5:_ZN9OpenBabel14OBMolAngleIterC2ERKS0_
libopenbabel.so.5:_ZN9OpenBabel14OBMolAngleIterC2ERNS_5OBMolE
libopenbabel.so.5:_ZN9OpenBabel14OBMolAngleIteraSERKS0_
libopenbabel.so.5:_ZN9OpenBabel14OBMolAngleIterppEv
libopenbabel.so.5:_ZN9OpenBabel14OBSpectrophore11SetAccuracyENS0_14AccuracyOptionE
libopenbabel.so.5:_ZN9OpenBabel14OBSpectrophore12_getEnergiesEPPdS1_
libopenbabel.so.5:_ZN9OpenBabel14OBSpectrophore12_luDecomposeEPPdRSt6vectorIiSaIiEEj
libopenbabel.so.5:_ZN9OpenBabel14OBSpectrophore12_solveMatrixEPPdS1_j
libopenbabel.so.5:_ZN9OpenBabel14OBSpectrophore13SetResolutionEd
libopenbabel.so.5:_ZN9OpenBabel14OBSpectrophore15GetSpectrophoreEPNS_5OBMolE
libopenbabel.so.5:_ZN9OpenBabel14OBSpectrophore16SetNormalizationENS0_19NormalizationOptionE
libopenbabel.so.5:_ZN9OpenBabel14OBSpectrophore16_getMoleculeDataEPNS_5OBMolE
libopenbabel.so.5:_ZN9OpenBabel14OBSpectrophore19_updateSpectrophoreEPdS1_
libopenbabel.so.5:_ZN9OpenBabel14OBSpectrophore20_calculatePropertiesEPNS_5OBMolE
libopenbabel.so.5:_ZN9OpenBabel14OBSpectrophore21_initiateSpectrophoreEPdS1_
libopenbabel.so.5:_ZN9OpenBabel14OBSpectrophore7_getBoxEPPd
libopenbabel.so.5:_ZN9OpenBabel14OBSpectrophore7_orientEv
libopenbabel.so.5:_ZN9OpenBabel14OBSpectrophore7_setBoxEv
libopenbabel.so.5:_ZN9OpenBabel14OBSpectrophore8_luSolveEPPdRSt6vectorIiSaIiEES1_j
libopenbabel.so.5:_ZN9OpenBabel14OBSpectrophore8_rotateXEPPdS2_dd
libopenbabel.so.5:_ZN9OpenBabel14OBSpectrophore8_rotateYEPPdS2_dd
libopenbabel.so.5:_ZN9OpenBabel14OBSpectrophore8_rotateZEPPdS2_dd
libopenbabel.so.5:_ZN9OpenBabel14OBSpectrophore9SetStereoENS0_12StereoOptionE
libopenbabel.so.5:_ZN9OpenBabel14OBSpectrophore9_swapRowsEPPdjjj
libopenbabel.so.5:_ZN9OpenBabel14OBSpectrophore9_swapRowsEPdjj
libopenbabel.so.5:_ZN9OpenBabel14OBSpectrophoreC1ERKS0_
libopenbabel.so.5:_ZN9OpenBabel14OBSpectrophoreC1Ev
libopenbabel.so.5:_ZN9OpenBabel14OBSpectrophoreC2ERKS0_
libopenbabel.so.5:_ZN9OpenBabel14OBSpectrophoreC2Ev
libopenbabel.so.5:_ZN9OpenBabel14OBSpectrophoreD0Ev
libopenbabel.so.5:_ZN9OpenBabel14OBSpectrophoreD1Ev
libopenbabel.so.5:_ZN9OpenBabel14OBSpectrophoreD2Ev
libopenbabel.so.5:_ZN9OpenBabel14OBSpectrophoreaSERKS0_
libopenbabel.so.5:_ZN9OpenBabel14OBStereoFacade17GetCisTransStereoEm
libopenbabel.so.5:_ZN9OpenBabel14OBStereoFacade17HasCisTransStereoEm
libopenbabel.so.5:_ZN9OpenBabel14OBStereoFacade17NumCisTransStereoEv
libopenbabel.so.5:_ZN9OpenBabel14OBStereoFacade20GetTetrahedralStereoEm
libopenbabel.so.5:_ZN9OpenBabel14OBStereoFacade20HasTetrahedralStereoEm
libopenbabel.so.5:_ZN9OpenBabel14OBStereoFacade20NumTetrahedralStereoEv
libopenbabel.so.5:_ZN9OpenBabel14OBStereoFacade21GetSquarePlanarStereoEm
libopenbabel.so.5:_ZN9OpenBabel14OBStereoFacade21HasSquarePlanarStereoEm
libopenbabel.so.5:_ZN9OpenBabel14OBStereoFacade21NumSquarePlanarStereoEv
libopenbabel.so.5:_ZN9OpenBabel14OBStereoFacade8InitMapsEv
libopenbabel.so.5:_ZN9OpenBabel14OBStereoFacade9GetStereoINS_16OBCisTransStereoEEEPT_m
libopenbabel.so.5:_ZN9OpenBabel14OBStereoFacade9GetStereoINS_19OBTetrahedralStereoEEEPT_m
libopenbabel.so.5:_ZN9OpenBabel14OBStereoFacade9HasStereoILi1EEEbm
libopenbabel.so.5:_ZN9OpenBabel14OBStereoFacade9HasStereoILi8EEEbm
libopenbabel.so.5:_ZN9OpenBabel14OBSymmetryDataC1ERKS0_
libopenbabel.so.5:_ZN9OpenBabel14OBSymmetryDataC1Ev
libopenbabel.so.5:_ZN9OpenBabel14OBSymmetryDataC2ERKS0_
libopenbabel.so.5:_ZN9OpenBabel14OBSymmetryDataC2Ev
libopenbabel.so.5:_ZN9OpenBabel14OBSymmetryDataaSERKS0_
libopenbabel.so.5:_ZN9OpenBabel14PackCoordinateEPdS0_
libopenbabel.so.5:_ZN9OpenBabel14PerceiveStereoEPNS_5OBMolEb
libopenbabel.so.5:_ZN9OpenBabel14SolveQuadraticEddd
libopenbabel.so.5:_ZN9OpenBabel14TemplateRedraw10redrawFineERNS_15TSimpleMoleculeE
libopenbabel.so.5:_ZN9OpenBabel14TemplateRedraw12isOverlappedESt6vectorIPNS_22PartFragmentDefinitionESaIS3_EEidd
libopenbabel.so.5:_ZN9OpenBabel14TemplateRedraw13loadTemplatesEv
libopenbabel.so.5:_ZN9OpenBabel14TemplateRedraw16arrangeFragmentsERSt6vectorIPNS_22PartFragmentDefinitionESaIS3_EEid
libopenbabel.so.5:_ZN9OpenBabel14TemplateRedraw16arrangeMoleculesERSt6vectorIPNS_22PartFragmentDefinitionESaIS3_EEd
libopenbabel.so.5:_ZN9OpenBabel14TemplateRedraw18coordinatesPrepareERNS_15TEditedMoleculeEii
libopenbabel.so.5:_ZN9OpenBabel14TemplateRedraw20internalBondsPresentEPNS_15TEditedMoleculeEPNS_15TSimpleMoleculeE
libopenbabel.so.5:_ZN9OpenBabel14TemplateRedraw20rotateBondVerticallyEPNS_15TSimpleMoleculeESt6vectorIiSaIiEEiddRdS6_S6_S6_S6_S6_Ri
libopenbabel.so.5:_ZN9OpenBabel14TemplateRedraw21rescaleSingleFragmentEPNS_15TSimpleMoleculeEPSt6vectorIiSaIiEERNS_22PartFragmentDefinitionEd
libopenbabel.so.5:_ZN9OpenBabel14TemplateRedraw27selectFragmentConfigurationEPNS_15TSimpleMoleculeEPSt6vectorIiSaIiEE
libopenbabel.so.5:_ZN9OpenBabel14TemplateRedraw5clearEv
libopenbabel.so.5:_ZN9OpenBabel14TemplateRedrawC1Ev
libopenbabel.so.5:_ZN9OpenBabel14TemplateRedrawC2Ev
libopenbabel.so.5:_ZN9OpenBabel14bondEquivalentEiiSt6vectorIiSaIiEERNS_15TSimpleMoleculeE
libopenbabel.so.5:_ZN9OpenBabel14expandKekulizeEPNS_5OBMolEiRSt6vectorIiSaIiEES5_RNS_8Kekulize7TimeoutE
libopenbabel.so.5:_ZN9OpenBabel14fragmentSearchEPNS_5OBMolES1_
libopenbabel.so.5:_ZN9OpenBabel14fragmentSearchESt6vectorIiSaIiEES2_S2_S2_S2_S2_S2_S2_iiii
libopenbabel.so.5:_ZN9OpenBabel14mult_matrix_ffEPPdS1_S1_ii
libopenbabel.so.5:_ZN9OpenBabel14print_matrix_fEPdii
libopenbabel.so.5:_ZN9OpenBabel14setUpDownBondsEiiRNS_15TSimpleMoleculeERSt6vectorIiSaIiEES5_S5_
libopenbabel.so.5:_ZN9OpenBabel15CanonicalLabelsEPNS_5OBMolERKSt6vectorIjSaIjEERS4_RKNS_8OBBitVecEib
libopenbabel.so.5:_ZN9OpenBabel15CompareRingSizeEPKNS_6OBRingES2_
libopenbabel.so.5:_ZN9OpenBabel15GetAtomSymClassEPNS_6OBAtomE
libopenbabel.so.5:_ZN9OpenBabel15GraphPotentialsERNS_5OBMolERSt6vectorIdSaIdEE
libopenbabel.so.5:_ZN9OpenBabel15OBAromaticTyper13TraverseCycleEPNS_6OBAtomES2_PNS_6OBBondERSt4pairIiiEi
libopenbabel.so.5:_ZN9OpenBabel15OBAromaticTyper15SelectRootAtomsERNS_5OBMolEb
libopenbabel.so.5:_ZN9OpenBabel15OBAromaticTyper16CheckAromaticityEPNS_6OBAtomEi
libopenbabel.so.5:_ZN9OpenBabel15OBAromaticTyper16ExcludeSmallRingERNS_5OBMolE
libopenbabel.so.5:_ZN9OpenBabel15OBAromaticTyper19AssignAromaticFlagsERNS_5OBMolE
libopenbabel.so.5:_ZN9OpenBabel15OBAromaticTyper26PropagatePotentialAromaticEPNS_6OBAtomE
libopenbabel.so.5:_ZN9OpenBabel15OBAromaticTyper9ParseLineEPKc
libopenbabel.so.5:_ZN9OpenBabel15OBAromaticTyperC1Ev
libopenbabel.so.5:_ZN9OpenBabel15OBAromaticTyperC2Ev
libopenbabel.so.5:_ZN9OpenBabel15OBAromaticTyperD0Ev
libopenbabel.so.5:_ZN9OpenBabel15OBAromaticTyperD1Ev
libopenbabel.so.5:_ZN9OpenBabel15OBAromaticTyperD2Ev
libopenbabel.so.5:_ZN9OpenBabel15OBConformerDataC1ERKS0_
libopenbabel.so.5:_ZN9OpenBabel15OBConformerDataC1Ev
libopenbabel.so.5:_ZN9OpenBabel15OBConformerDataC2ERKS0_
libopenbabel.so.5:_ZN9OpenBabel15OBConformerDataC2Ev
libopenbabel.so.5:_ZN9OpenBabel15OBConformerDataaSERKS0_
libopenbabel.so.5:_ZN9OpenBabel15OBDepictPrivate12DrawRingBondEPNS_6OBAtomES2_RKNS_7vector3Ei
libopenbabel.so.5:_ZN9OpenBabel15OBDepictPrivate13DrawAtomLabelERKNSt7__cxx1112basic_stringIcSt11char_traitsIcESaIcEEEiRKNS_7vector3E
libopenbabel.so.5:_ZN9OpenBabel15OBDepictPrivate14DrawSimpleBondEPNS_6OBAtomES2_ib
libopenbabel.so.5:_ZN9OpenBabel15OBDepictPrivate14DrawWobblyBondEPNS_6OBAtomES2_
libopenbabel.so.5:_ZN9OpenBabel15OBDepictPrivate15SetWedgeAndHashEPNS_5OBMolE
libopenbabel.so.5:_ZN9OpenBabel15OBDepictPrivate16DrawAromaticRingEPNS_6OBRingERNS_8OBBitVecE
libopenbabel.so.5:_ZN9OpenBabel15OBDepictPrivate8DrawAtomEPNS_6OBAtomE
libopenbabel.so.5:_ZN9OpenBabel15OBDepictPrivate8DrawHashEPNS_6OBAtomES2_
libopenbabel.so.5:_ZN9OpenBabel15OBDepictPrivate8DrawRingEPNS_6OBRingERNS_8OBBitVecE
libopenbabel.so.5:_ZN9OpenBabel15OBDepictPrivate8HasLabelEPNS_6OBAtomE
libopenbabel.so.5:_ZN9OpenBabel15OBDepictPrivate9DrawWedgeEPNS_6OBAtomES2_
libopenbabel.so.5:_ZN9OpenBabel15OBFFConstraints11GetGradientEi
libopenbabel.so.5:_ZN9OpenBabel15OBFFConstraints16DeleteConstraintEi
libopenbabel.so.5:_ZN9OpenBabel15OBFFConstraints17AddAtomConstraintEi
libopenbabel.so.5:_ZN9OpenBabel15OBFFConstraints18AddAngleConstraintEiiid
libopenbabel.so.5:_ZN9OpenBabel15OBFFConstraints18AddAtomXConstraintEi
libopenbabel.so.5:_ZN9OpenBabel15OBFFConstraints18AddAtomYConstraintEi
libopenbabel.so.5:_ZN9OpenBabel15OBFFConstraints18AddAtomZConstraintEi
libopenbabel.so.5:_ZN9OpenBabel15OBFFConstraints19GetConstraintEnergyEv
libopenbabel.so.5:_ZN9OpenBabel15OBFFConstraints20AddTorsionConstraintEiiiid
libopenbabel.so.5:_ZN9OpenBabel15OBFFConstraints21AddDistanceConstraintEiid
libopenbabel.so.5:_ZN9OpenBabel15OBFFConstraints5ClearEv
libopenbabel.so.5:_ZN9OpenBabel15OBFFConstraints5SetupERNS_5OBMolE
libopenbabel.so.5:_ZN9OpenBabel15OBFFConstraints7IsFixedEi
libopenbabel.so.5:_ZN9OpenBabel15OBFFConstraints8IsXFixedEi
libopenbabel.so.5:_ZN9OpenBabel15OBFFConstraints8IsYFixedEi
libopenbabel.so.5:_ZN9OpenBabel15OBFFConstraints8IsZFixedEi
libopenbabel.so.5:_ZN9OpenBabel15OBFFConstraints9AddIgnoreEi
libopenbabel.so.5:_ZN9OpenBabel15OBFFConstraints9GetFactorEv
libopenbabel.so.5:_ZN9OpenBabel15OBFFConstraints9IsIgnoredEi
libopenbabel.so.5:_ZN9OpenBabel15OBFFConstraints9SetFactorEd
libopenbabel.so.5:_ZN9OpenBabel15OBFFConstraintsC1Ev
libopenbabel.so.5:_ZN9OpenBabel15OBFFConstraintsC2Ev
libopenbabel.so.5:_ZN9OpenBabel15OBSmartsMatcher12EvalAtomExprEPNS_9_AtomExprEPNS_6OBAtomE
libopenbabel.so.5:_ZN9OpenBabel15OBSmartsMatcher12EvalBondExprEPNS_9_BondExprEPNS_6OBBondE
libopenbabel.so.5:_ZN9OpenBabel15OBSmartsMatcher15FastSingleMatchERNS_5OBMolEPKNS_7PatternERSt6vectorIS6_IiSaIiEESaIS8_EE
libopenbabel.so.5:_ZN9OpenBabel15OBSmartsMatcher19SetupAtomMatchTableERSt6vectorIS1_IbSaIbEESaIS3_EEPKNS_7PatternERNS_5OBMolE
libopenbabel.so.5:_ZN9OpenBabel15OBSmartsMatcher5matchERNS_5OBMolEPKNS_7PatternERSt6vectorIS6_IiSaIiEESaIS8_EEb
libopenbabel.so.5:_ZN9OpenBabel15OBSmartsPattern11GetUMapListEv
libopenbabel.so.5:_ZN9OpenBabel15OBSmartsPattern11SMARTSErrorEPNS_7PatternE
libopenbabel.so.5:_ZN9OpenBabel15OBSmartsPattern12GetAtomicNumEi
libopenbabel.so.5:_ZN9OpenBabel15OBSmartsPattern12SMARTSParserEPNS_7PatternEPNS_10ParseStateEii
libopenbabel.so.5:_ZN9OpenBabel15OBSmartsPattern12WriteMapListERSo
libopenbabel.so.5:_ZN9OpenBabel15OBSmartsPattern13ParseAtomExprEi
libopenbabel.so.5:_ZN9OpenBabel15OBSmartsPattern13ParseBondExprEi
libopenbabel.so.5:_ZN9OpenBabel15OBSmartsPattern15ParseSMARTSPartEPNS_7PatternEi
libopenbabel.so.5:_ZN9OpenBabel15OBSmartsPattern15RestrictedMatchERNS_5OBMolERNS_8OBBitVecEb
libopenbabel.so.5:_ZN9OpenBabel15OBSmartsPattern15RestrictedMatchERNS_5OBMolERSt6vectorISt4pairIiiESaIS5_EEb
libopenbabel.so.5:_ZN9OpenBabel15OBSmartsPattern16GetVectorBindingEv
libopenbabel.so.5:_ZN9OpenBabel15OBSmartsPattern16ParseSMARTSErrorEPNS_7PatternEPNS_9_BondExprE
libopenbabel.so.5:_ZN9OpenBabel15OBSmartsPattern17ParseSMARTSRecordEPc
libopenbabel.so.5:_ZN9OpenBabel15OBSmartsPattern17ParseSMARTSStringEPc
libopenbabel.so.5:_ZN9OpenBabel15OBSmartsPattern18ParseBondPrimitiveEv
libopenbabel.so.5:_ZN9OpenBabel15OBSmartsPattern18ParseSMARTSPatternEv
libopenbabel.so.5:_ZN9OpenBabel15OBSmartsPattern24ParseSimpleAtomPrimitiveEv
libopenbabel.so.5:_ZN9OpenBabel15OBSmartsPattern25ParseComplexAtomPrimitiveEv
libopenbabel.so.5:_ZN9OpenBabel15OBSmartsPattern4InitEPKc
libopenbabel.so.5:_ZN9OpenBabel15OBSmartsPattern4InitERKNSt7__cxx1112basic_stringIcSt11char_traitsIcESaIcEEE
libopenbabel.so.5:_ZN9OpenBabel15OBSmartsPattern5MatchERNS_5OBMolEb
libopenbabel.so.5:_ZN9OpenBabel15OBSmartsPattern7GetBondERiS1_S1_i
libopenbabel.so.5:_ZN9OpenBabel15OBSmartsPattern9GetChargeEi
libopenbabel.so.5:_ZN9OpenBabel15OBSmartsPatternD0Ev
libopenbabel.so.5:_ZN9OpenBabel15OBSmartsPatternD1Ev
libopenbabel.so.5:_ZN9OpenBabel15OBSmartsPatternD2Ev
libopenbabel.so.5:_ZN9OpenBabel15OBVibrationData7SetDataERKSt6vectorIS1_INS_7vector3ESaIS2_EESaIS4_EERKS1_IdSaIdEESC_
libopenbabel.so.5:_ZN9OpenBabel15OBVibrationData7SetDataERKSt6vectorIS1_INS_7vector3ESaIS2_EESaIS4_EERKS1_IdSaIdEESC_SC_
libopenbabel.so.5:_ZN9OpenBabel15SetRotorToAngleEPdPPNS_6OBAtomEdSt6vectorIiSaIiEE
libopenbabel.so.5:_ZN9OpenBabel15SetRotorToAngleEPdRSt6vectorIiSaIiEEdS4_
libopenbabel.so.5:_ZN9OpenBabel15TEditedMolecule11addFragmentERS0_iiiiRSt6vectorIiSaIiEEdddddddib
libopenbabel.so.5:_ZN9OpenBabel15TEditedMolecule12prepareQueryERNS_15TSimpleMoleculeE
libopenbabel.so.5:_ZN9OpenBabel15TEditedMolecule13addAsTemplateERS0_iiiib
libopenbabel.so.5:_ZN9OpenBabel15TEditedMolecule13directBondAssERiRbS2_PKPKbS6_RSt6vectorIiSaIiEESA_SA_SA_SA_S9_PKNS_12adjustedlistEPNS_15TSimpleMoleculeE
libopenbabel.so.5:_ZN9OpenBabel15TEditedMolecule14atomBondChangeEv
libopenbabel.so.5:_ZN9OpenBabel15TEditedMolecule14fragmentSearchEPS0_PSt6vectorIiSaIiEE
libopenbabel.so.5:_ZN9OpenBabel15TEditedMolecule14removeHydrogenEPSt6vectorIiSaIiEES4_
libopenbabel.so.5:_ZN9OpenBabel15TEditedMolecule15allQueryPresentESt6vectorIiSaIiEES3_ii
libopenbabel.so.5:_ZN9OpenBabel15TEditedMolecule15extractFragmentEiPSt6vectorIiSaIiEE
libopenbabel.so.5:_ZN9OpenBabel15TEditedMolecule16stereoBondChangeEv
libopenbabel.so.5:_ZN9OpenBabel15TSimpleMolecule10bondLengthEi
libopenbabel.so.5:_ZN9OpenBabel15TSimpleMolecule10deleteAtomEi
libopenbabel.so.5:_ZN9OpenBabel15TSimpleMolecule10deleteBondEi
libopenbabel.so.5:_ZN9OpenBabel15TSimpleMolecule10getMolfileERSo
libopenbabel.so.5:_ZN9OpenBabel15TSimpleMolecule10listarSizeEv
libopenbabel.so.5:_ZN9OpenBabel15TSimpleMolecule10singleVaweEPNS_12adjustedlistERSt6vectorIiSaIiEES6_S6_RiS6_S6_
libopenbabel.so.5:_ZN9OpenBabel15TSimpleMolecule10unitVectorEiRdS1_
libopenbabel.so.5:_ZN9OpenBabel15TSimpleMolecule11bondEnlargeEi
libopenbabel.so.5:_ZN9OpenBabel15TSimpleMolecule12makeFragmentERSt6vectorIiSaIiEEii
libopenbabel.so.5:_ZN9OpenBabel15TSimpleMolecule12moleculeCopyERS0_
libopenbabel.so.5:_ZN9OpenBabel15TSimpleMolecule13canonizeCycleEiRSt6vectorIiSaIiEE
libopenbabel.so.5:_ZN9OpenBabel15TSimpleMolecule13hasOverlappedEdb
libopenbabel.so.5:_ZN9OpenBabel15TSimpleMolecule14allAboutCyclesEv
libopenbabel.so.5:_ZN9OpenBabel15TSimpleMolecule14bondUnitVectorEiRdS1_
libopenbabel.so.5:_ZN9OpenBabel15TSimpleMolecule14defineAtomConnEv
libopenbabel.so.5:_ZN9OpenBabel15TSimpleMolecule14defineBondConnEPNS_12adjustedlistE
libopenbabel.so.5:_ZN9OpenBabel15TSimpleMolecule14fragmentSecondEiiiSt6vectorIiSaIiEES3_PKNS_12adjustedlistERS3_
libopenbabel.so.5:_ZN9OpenBabel15TSimpleMolecule14redrawMoleculeEv
libopenbabel.so.5:_ZN9OpenBabel15TSimpleMolecule15bondsOverlappedEiid
libopenbabel.so.5:_ZN9OpenBabel15TSimpleMolecule15checkOverlappedEv
libopenbabel.so.5:_ZN9OpenBabel15TSimpleMolecule16setupRotorSearchERKSt6vectorIiSaIiEERS3_S6_
libopenbabel.so.5:_ZN9OpenBabel15TSimpleMolecule16threeBondResolveEiiRdS1_PNS_12adjustedlistE
libopenbabel.so.5:_ZN9OpenBabel15TSimpleMolecule17averageBondLengthEv
libopenbabel.so.5:_ZN9OpenBabel15TSimpleMolecule17correctOverlappedEv
libopenbabel.so.5:_ZN9OpenBabel15TSimpleMolecule17twoAtomUnitVectorEiiRdS1_St6vectorIiSaIiEE
libopenbabel.so.5:_ZN9OpenBabel15TSimpleMolecule18atomDistanceMetricEi
libopenbabel.so.5:_ZN9OpenBabel15TSimpleMolecule18makeEquivalentListERSt6vectorIiSaIiEEb
libopenbabel.so.5:_ZN9OpenBabel15TSimpleMolecule20correctDblBondStereoEv
libopenbabel.so.5:_ZN9OpenBabel15TSimpleMolecule20normalizeCoordinatesEd
libopenbabel.so.5:_ZN9OpenBabel15TSimpleMolecule20readConnectionMatrixESt6vectorIiSaIiEES3_S1_IdSaIdEES5_ii
libopenbabel.so.5:_ZN9OpenBabel15TSimpleMolecule20readConnectionMatrixESt6vectorIiSaIiEES3_ii
libopenbabel.so.5:_ZN9OpenBabel15TSimpleMolecule20setCoordinatesStringENSt7__cxx1112basic_stringIcSt11char_traitsIcESaIcEEE
libopenbabel.so.5:_ZN9OpenBabel15TSimpleMolecule20unitVectorCoincidentEidd
libopenbabel.so.5:_ZN9OpenBabel15TSimpleMolecule22singleAtomicDescriptorEiib
libopenbabel.so.5:_ZN9OpenBabel15TSimpleMolecule4defAERiiiiRSt6vectorIiSaIiEES4_S5_RS2_IS4_SaIS4_EES5_S5_S5_S5_
libopenbabel.so.5:_ZN9OpenBabel15TSimpleMolecule4defCERiiiRSt6vectorIiSaIiEES5_RS2_IS4_SaIS4_EES5_S5_S5_S5_S5_
libopenbabel.so.5:_ZN9OpenBabel15TSimpleMolecule4newBEPNS_12adjustedlistEiiRiPiS4_
libopenbabel.so.5:_ZN9OpenBabel15TSimpleMolecule5clearEv
libopenbabel.so.5:_ZN9OpenBabel15TSimpleMolecule5getNHEi
libopenbabel.so.5:_ZN9OpenBabel15TSimpleMolecule6nAtomsEv
libopenbabel.so.5:_ZN9OpenBabel15TSimpleMolecule6nBondsEv
libopenbabel.so.5:_ZN9OpenBabel15TSimpleMolecule6redrawESt6vectorIiSaIiEES3_iRiiiib
libopenbabel.so.5:_ZN9OpenBabel15TSimpleMolecule7addAtomEPNS_11TSingleAtomE
libopenbabel.so.5:_ZN9OpenBabel15TSimpleMolecule7addAtomEiidd
libopenbabel.so.5:_ZN9OpenBabel15TSimpleMolecule7addBondEPNS_11TSingleBondE
libopenbabel.so.5:_ZN9OpenBabel15TSimpleMolecule7addBondEiii
libopenbabel.so.5:_ZN9OpenBabel15TSimpleMolecule7getAtomEi
libopenbabel.so.5:_ZN9OpenBabel15TSimpleMolecule7getBondEi
libopenbabel.so.5:_ZN9OpenBabel15TSimpleMolecule8aromaticEiSt6vectorIiSaIiEERS3_
libopenbabel.so.5:_ZN9OpenBabel15TSimpleMolecule8vaweBondEiPNS_12adjustedlistERiRSt6vectorIiSaIiEE
libopenbabel.so.5:_ZN9OpenBabel15TSimpleMolecule9flipSmallEi
libopenbabel.so.5:_ZN9OpenBabel15TSimpleMolecule9readOBMolEPNS_5OBMolE
libopenbabel.so.5:_ZN9OpenBabel15equivalenceListEPNS_5OBMolERSt6vectorIiSaIiEE
libopenbabel.so.5:_ZN9OpenBabel15equivalenceListESt6vectorIiSaIiEES2_S2_S2_S2_S2_RS2_ii
libopenbabel.so.5:_ZN9OpenBabel15generateDiagramEPNS_5OBMolE
libopenbabel.so.5:_ZN9OpenBabel15generateDiagramEPNS_5OBMolERSo
libopenbabel.so.5:_ZN9OpenBabel15generateDiagramESt6vectorIiSaIiEES2_RS0_IdSaIdEES5_ii
libopenbabel.so.5:_ZN9OpenBabel15hydrogenValencyEi
libopenbabel.so.5:_ZN9OpenBabel15incrementValuesERSt6vectorIiSaIiEES2_
libopenbabel.so.5:_ZN9OpenBabel15invert_matrix_fEPdRdii
libopenbabel.so.5:_ZN9OpenBabel15isFerroceneBondEPNS_6OBBondE
libopenbabel.so.5:_ZN9OpenBabel15print_matrix_ffEPPdii
libopenbabel.so.5:_ZN9OpenBabel16CalcSignedVolumeERNS_5OBMolEPNS_6OBAtomEb
libopenbabel.so.5:_ZN9OpenBabel16CalcTorsionAngleERKNS_7vector3ES2_S2_S2_
libopenbabel.so.5:_ZN9OpenBabel16CorrectChiralityERNS_5OBMolEPNS_6OBAtomENS_11atomreftypeES4_
libopenbabel.so.5:_ZN9OpenBabel16GenerateSequenceEjjjj
libopenbabel.so.5:_ZN9OpenBabel16OBCisTransStereo9SetConfigERKNS0_6ConfigE
libopenbabel.so.5:_ZN9OpenBabel16OBCisTransStereoC1EPNS_5OBMolE
libopenbabel.so.5:_ZN9OpenBabel16OBCisTransStereoC2EPNS_5OBMolE
libopenbabel.so.5:_ZN9OpenBabel16OBCisTransStereoD0Ev
libopenbabel.so.5:_ZN9OpenBabel16OBCisTransStereoD1Ev
libopenbabel.so.5:_ZN9OpenBabel16OBCisTransStereoD2Ev
libopenbabel.so.5:_ZN9OpenBabel16OBConformerScoreD0Ev
libopenbabel.so.5:_ZN9OpenBabel16OBConformerScoreD1Ev
libopenbabel.so.5:_ZN9OpenBabel16OBConformerScoreD2Ev
libopenbabel.so.5:_ZN9OpenBabel16OBGlobalDataBase4InitEv
libopenbabel.so.5:_ZN9OpenBabel16OBMessageHandler10ThrowErrorENS_7OBErrorENS_14errorQualifierE
libopenbabel.so.5:_ZN9OpenBabel16OBMessageHandler10ThrowErrorERKNSt7__cxx1112basic_stringIcSt11char_traitsIcESaIcEEES8_NS_14obMessageLevelENS_14errorQualifierE
libopenbabel.so.5:_ZN9OpenBabel16OBMessageHandler13StopErrorWrapEv
libopenbabel.so.5:_ZN9OpenBabel16OBMessageHandler14StartErrorWrapEv
libopenbabel.so.5:_ZN9OpenBabel16OBMessageHandler17GetMessageSummaryB5cxx11Ev
libopenbabel.so.5:_ZN9OpenBabel16OBMessageHandler18GetMessagesOfLevelB5cxx11ENS_14obMessageLevelE
libopenbabel.so.5:_ZN9OpenBabel16OBMessageHandlerC1Ev
libopenbabel.so.5:_ZN9OpenBabel16OBMessageHandlerC2Ev
libopenbabel.so.5:_ZN9OpenBabel16OBMessageHandlerD1Ev
libopenbabel.so.5:_ZN9OpenBabel16OBMessageHandlerD2Ev
libopenbabel.so.5:_ZN9OpenBabel16OBMolAtomBFSIterC1EPNS_5OBMolEi
libopenbabel.so.5:_ZN9OpenBabel16OBMolAtomBFSIterC1ERKS0_
libopenbabel.so.5:_ZN9OpenBabel16OBMolAtomBFSIterC1ERNS_5OBMolEi
libopenbabel.so.5:_ZN9OpenBabel16OBMolAtomBFSIterC2EPNS_5OBMolEi
libopenbabel.so.5:_ZN9OpenBabel16OBMolAtomBFSIterC2ERKS0_
libopenbabel.so.5:_ZN9OpenBabel16OBMolAtomBFSIterC2ERNS_5OBMolEi
libopenbabel.so.5:_ZN9OpenBabel16OBMolAtomBFSIteraSERKS0_
libopenbabel.so.5:_ZN9OpenBabel16OBMolAtomBFSIterppEi
libopenbabel.so.5:_ZN9OpenBabel16OBMolAtomBFSIterppEv
libopenbabel.so.5:_ZN9OpenBabel16OBMolAtomDFSIterC1EPNS_5OBMolEi
libopenbabel.so.5:_ZN9OpenBabel16OBMolAtomDFSIterC1ERKS0_
libopenbabel.so.5:_ZN9OpenBabel16OBMolAtomDFSIterC1ERNS_5OBMolEi
libopenbabel.so.5:_ZN9OpenBabel16OBMolAtomDFSIterC2EPNS_5OBMolEi
libopenbabel.so.5:_ZN9OpenBabel16OBMolAtomDFSIterC2ERKS0_
libopenbabel.so.5:_ZN9OpenBabel16OBMolAtomDFSIterC2ERNS_5OBMolEi
libopenbabel.so.5:_ZN9OpenBabel16OBMolAtomDFSIteraSERKS0_
libopenbabel.so.5:_ZN9OpenBabel16OBMolAtomDFSIterppEi
libopenbabel.so.5:_ZN9OpenBabel16OBMolAtomDFSIterppEv
libopenbabel.so.5:_ZN9OpenBabel16OBMolBondBFSIterC1EPNS_5OBMolEi
libopenbabel.so.5:_ZN9OpenBabel16OBMolBondBFSIterC1ERKS0_
libopenbabel.so.5:_ZN9OpenBabel16OBMolBondBFSIterC1ERNS_5OBMolEi
libopenbabel.so.5:_ZN9OpenBabel16OBMolBondBFSIterC2EPNS_5OBMolEi
libopenbabel.so.5:_ZN9OpenBabel16OBMolBondBFSIterC2ERKS0_
libopenbabel.so.5:_ZN9OpenBabel16OBMolBondBFSIterC2ERNS_5OBMolEi
libopenbabel.so.5:_ZN9OpenBabel16OBMolBondBFSIteraSERKS0_
libopenbabel.so.5:_ZN9OpenBabel16OBMolBondBFSIterppEi
libopenbabel.so.5:_ZN9OpenBabel16OBMolBondBFSIterppEv
libopenbabel.so.5:_ZN9OpenBabel16OBMolTorsionIterC1EPNS_5OBMolE
libopenbabel.so.5:_ZN9OpenBabel16OBMolTorsionIterC1ERKS0_
libopenbabel.so.5:_ZN9OpenBabel16OBMolTorsionIterC1ERNS_5OBMolE
libopenbabel.so.5:_ZN9OpenBabel16OBMolTorsionIterC2EPNS_5OBMolE
libopenbabel.so.5:_ZN9OpenBabel16OBMolTorsionIterC2ERKS0_
libopenbabel.so.5:_ZN9OpenBabel16OBMolTorsionIterC2ERNS_5OBMolE
libopenbabel.so.5:_ZN9OpenBabel16OBMolTorsionIteraSERKS0_
libopenbabel.so.5:_ZN9OpenBabel16OBMolTorsionIterppEv
libopenbabel.so.5:_ZN9OpenBabel16OBMoleculeFormat13ReadNameIndexERSt3mapINSt7__cxx1112basic_stringIcSt11char_traitsIcESaIcEEEjSt4lessIS7_ESaISt4pairIKS7_jEEERSB_PNS_8OBFormatE
libopenbabel.so.5:_ZN9OpenBabel16OBMoleculeFormat14DeferMolOutputEPNS_5OBMolEPNS_12OBConversionEPNS_8OBFormatE
libopenbabel.so.5:_ZN9OpenBabel16OBMoleculeFormat15DoOutputOptionsEPNS_6OBBaseEPNS_12OBConversionE
libopenbabel.so.5:_ZN9OpenBabel16OBMoleculeFormat18DeleteDeferredMolsEv
libopenbabel.so.5:_ZN9OpenBabel16OBMoleculeFormat18OutputDeferredMolsEPNS_12OBConversionE
libopenbabel.so.5:_ZN9OpenBabel16OBMoleculeFormat18ReadChemObjectImplEPNS_12OBConversionEPNS_8OBFormatE
libopenbabel.so.5:_ZN9OpenBabel16OBMoleculeFormat19WriteChemObjectImplEPNS_12OBConversionEPNS_8OBFormatE
libopenbabel.so.5:_ZN9OpenBabel16OBMoleculeFormat20MakeCombinedMoleculeEPNS_5OBMolES2_
libopenbabel.so.5:_ZN9OpenBabel16OBMoleculeFormat22OutputMolsFromReactionEPNS_10OBReactionEPNS_12OBConversionEPNS_8OBFormatE
libopenbabel.so.5:_ZN9OpenBabel16OBReleaseVersionB5cxx11Ev
libopenbabel.so.5:_ZN9OpenBabel16Point2PlaneAngleENS_7vector3ES0_S0_S0_
libopenbabel.so.5:_ZN9OpenBabel16SmartsLexReplaceERNSt7__cxx1112basic_stringIcSt11char_traitsIcESaIcEEERSt6vectorISt4pairIS5_S5_ESaIS9_EE
libopenbabel.so.5:_ZN9OpenBabel16UnpackCoordinateEPdS0_i
libopenbabel.so.5:_ZN9OpenBabel16changeParityBondENSt7__cxx1112basic_stringIcSt11char_traitsIcESaIcEEE
libopenbabel.so.5:_ZN9OpenBabel16convert_matrix_fEPdRSt6vectorIS1_IdSaIdEESaIS3_EEii
libopenbabel.so.5:_ZN9OpenBabel16convert_matrix_fERSt6vectorIS0_IdSaIdEESaIS2_EEPd
libopenbabel.so.5:_ZN9OpenBabel16deleteIntElementEPSt6vectorIiSaIiEEi
libopenbabel.so.5:_ZN9OpenBabel16invert_matrix_ffEPPdRdii
libopenbabel.so.5:_ZN9OpenBabel16isUnitInFragmentEPNS_5OBMolERKNS_12OBStereoUnitERKNS_8OBBitVecE
libopenbabel.so.5:_ZN9OpenBabel17CalcQuarticCoeffsERKN5Eigen6MatrixIdLi3ELi3ELi0ELi3ELi3EEE
libopenbabel.so.5:_ZN9OpenBabel17CanonicalTautomerEPNS_5OBMolE
libopenbabel.so.5:_ZN9OpenBabel17DetermineSequenceEjPjS0_S0_
libopenbabel.so.5:_ZN9OpenBabel17FastSearchIndexer3AddEPNS_6OBBaseESt4fposI11__mbstate_tE
libopenbabel.so.5:_ZN9OpenBabel17FastSearchIndexerC1EPNS_8FptIndexEPSoi
libopenbabel.so.5:_ZN9OpenBabel17FastSearchIndexerC1ERNSt7__cxx1112basic_stringIcSt11char_traitsIcESaIcEEEPSoS7_ii
libopenbabel.so.5:_ZN9OpenBabel17FastSearchIndexerC2EPNS_8FptIndexEPSoi
libopenbabel.so.5:_ZN9OpenBabel17FastSearchIndexerC2ERNSt7__cxx1112basic_stringIcSt11char_traitsIcESaIcEEEPSoS7_ii
libopenbabel.so.5:_ZN9OpenBabel17FastSearchIndexerD1Ev
libopenbabel.so.5:_ZN9OpenBabel17FastSearchIndexerD2Ev
libopenbabel.so.5:_ZN9OpenBabel17FindAutomorphismsEPNS_5OBMolERSt6vectorIS2_ISt4pairIjjESaIS4_EESaIS6_EERKNS_8OBBitVecEm
libopenbabel.so.5:_ZN9OpenBabel17FindAutomorphismsEPNS_5OBMolERSt6vectorIS2_ISt4pairIjjESaIS4_EESaIS6_EERKS2_IjSaIjEERKNS_8OBBitVecEm
libopenbabel.so.5:_ZN9OpenBabel17FindAutomorphismsERNS_19OBIsomorphismMapper7FunctorEPNS_5OBMolERKSt6vectorIjSaIjEERKNS_8OBBitVecE
libopenbabel.so.5:_ZN9OpenBabel17GenerateByteCodesEPPNS_9_ByteCodeEiiii
libopenbabel.so.5:_ZN9OpenBabel17GetCurrentValenceEPNS_6OBAtomE
libopenbabel.so.5:_ZN9OpenBabel17GetLabelAlignmentEPNS_6OBAtomE
libopenbabel.so.5:_ZN9OpenBabel17OBCompareUnsignedERKjS1_
libopenbabel.so.5:_ZN9OpenBabel17OBConformerFilterD0Ev
libopenbabel.so.5:_ZN9OpenBabel17OBConformerFilterD1Ev
libopenbabel.so.5:_ZN9OpenBabel17OBConformerFilterD2Ev
libopenbabel.so.5:_ZN9OpenBabel17OBConformerSearch12key_distanceERKSt6vectorIiSaIiEES5_
libopenbabel.so.5:_ZN9OpenBabel17OBConformerSearch13GetConformersERNS_5OBMolE
libopenbabel.so.5:_ZN9OpenBabel17OBConformerSearch13MakeSelectionEv
libopenbabel.so.5:_ZN9OpenBabel17OBConformerSearch13share_fitnessEv
libopenbabel.so.5:_ZN9OpenBabel17OBConformerSearch14NextGenerationEv
libopenbabel.so.5:_ZN9OpenBabel17OBConformerSearch16score_populationEv
libopenbabel.so.5:_ZN9OpenBabel17OBConformerSearch18sharing_generationEv
libopenbabel.so.5:_ZN9OpenBabel17OBConformerSearch5SetupERKNS_5OBMolEiiii
libopenbabel.so.5:_ZN9OpenBabel17OBConformerSearch6IsGoodERKSt6vectorIiSaIiEE
libopenbabel.so.5:_ZN9OpenBabel17OBConformerSearch6SearchEv
libopenbabel.so.5:_ZN9OpenBabel17OBConformerSearch9local_optEv
libopenbabel.so.5:_ZN9OpenBabel17OBConformerSearch9reproduceERSt6vectorIiSaIiEES4_
libopenbabel.so.5:_ZN9OpenBabel17OBConformerSearchC1Ev
libopenbabel.so.5:_ZN9OpenBabel17OBConformerSearchC2Ev
libopenbabel.so.5:_ZN9OpenBabel17OBConformerSearchD1Ev
libopenbabel.so.5:_ZN9OpenBabel17OBConformerSearchD2Ev
libopenbabel.so.5:_ZN9OpenBabel17OBGraphSymPrivate11GetGIVectorERSt6vectorIjSaIjEE
libopenbabel.so.5:_ZN9OpenBabel17OBGraphSymPrivate12GetGTDVectorERSt6vectorIiSaIiEE
libopenbabel.so.5:_ZN9OpenBabel17OBGraphSymPrivate13FindRingAtomsERNS_8OBBitVecE
libopenbabel.so.5:_ZN9OpenBabel17OBGraphSymPrivate13GetHvyBondSumEPNS_6OBAtomE
libopenbabel.so.5:_ZN9OpenBabel17OBGraphSymPrivate13GetHvyValenceEPNS_6OBAtomE
libopenbabel.so.5:_ZN9OpenBabel17OBGraphSymPrivate16ExtendInvariantsERSt6vectorISt4pairIPNS_6OBAtomEjESaIS5_EE
libopenbabel.so.5:_ZN9OpenBabel17OBGraphSymPrivate17CalculateSymmetryERSt6vectorIjSaIjEE
libopenbabel.so.5:_ZN9OpenBabel17OBGraphSymPrivate20CreateNewClassVectorEPNS_5OBMolERSt6vectorISt4pairIPNS_6OBAtomEjESaIS7_EESA_
libopenbabel.so.5:_ZN9OpenBabel17OBGraphSymPrivate20CreateNewClassVectorERSt6vectorISt4pairIPNS_6OBAtomEjESaIS5_EES8_
libopenbabel.so.5:_ZN9OpenBabel17OBGraphSymPrivate23CountAndRenumberClassesERSt6vectorISt4pairIPNS_6OBAtomEjESaIS5_EERj
libopenbabel.so.5:_ZN9OpenBabel17OBGraphSymPrivate7IterateERSt6vectorIjSaIjEE
libopenbabel.so.5:_ZN9OpenBabel17OBResidueAtomIterC1EPNS_9OBResidueE
libopenbabel.so.5:_ZN9OpenBabel17OBResidueAtomIterC1ERKS0_
libopenbabel.so.5:_ZN9OpenBabel17OBResidueAtomIterC1ERNS_9OBResidueE
libopenbabel.so.5:_ZN9OpenBabel17OBResidueAtomIterC2EPNS_9OBResidueE
libopenbabel.so.5:_ZN9OpenBabel17OBResidueAtomIterC2ERKS0_
libopenbabel.so.5:_ZN9OpenBabel17OBResidueAtomIterC2ERNS_9OBResidueE
libopenbabel.so.5:_ZN9OpenBabel17OBResidueAtomIteraSERKS0_
libopenbabel.so.5:_ZN9OpenBabel17OBResidueAtomIterppEi
libopenbabel.so.5:_ZN9OpenBabel17OBResidueAtomIterppEv
libopenbabel.so.5:_ZN9OpenBabel17Point2PlaneSignedENS_7vector3ES0_S0_S0_
libopenbabel.so.5:_ZN9OpenBabel17TetrahedralFrom0DEPNS_5OBMolERKSt6vectorINS_12OBStereoUnitESaIS3_EEb
libopenbabel.so.5:_ZN9OpenBabel17TetrahedralFrom2DEPNS_5OBMolERKSt6vectorINS_12OBStereoUnitESaIS3_EEb
libopenbabel.so.5:_ZN9OpenBabel17TetrahedralFrom3DEPNS_5OBMolERKSt6vectorINS_12OBStereoUnitESaIS3_EEb
libopenbabel.so.5:_ZN9OpenBabel17analizeParityBondENSt7__cxx1112basic_stringIcSt11char_traitsIcESaIcEEE
libopenbabel.so.5:_ZN9OpenBabel17areDuplicateAtomsENS_7vector3ES0_
libopenbabel.so.5:_ZN9OpenBabel17convert_matrix_ffEPPdRSt6vectorIS2_IdSaIdEESaIS4_EEii
libopenbabel.so.5:_ZN9OpenBabel17convert_matrix_ffERSt6vectorIS0_IdSaIdEESaIS2_EEPPd
libopenbabel.so.5:_ZN9OpenBabel17createStereoListsEPNS_5OBMolERSt6vectorIiSaIiEES5_S5_
libopenbabel.so.5:_ZN9OpenBabel17get_bonds_of_ringEPNS_5OBMolEPNS_6OBRingERSt6vectorIPNS_6OBBondESaIS6_EE
libopenbabel.so.5:_ZN9OpenBabel18CompileSmilesQueryERKNSt7__cxx1112basic_stringIcSt11char_traitsIcESaIcEEERKNS_8OBBitVecE
libopenbabel.so.5:_ZN9OpenBabel18DeleteStereoOnAtomERNS_5OBMolEm
libopenbabel.so.5:_ZN9OpenBabel18EnumerateTautomersEPNS_5OBMolERNS_15TautomerFunctorE
libopenbabel.so.5:_ZN9OpenBabel18GetHeavyAtomCoordsEPKNS_5OBMolERKSt6vectorINS_7vector3ESaIS4_EE
libopenbabel.so.5:_ZN9OpenBabel18OBDistanceGeometry11CheckBoundsEv
libopenbabel.so.5:_ZN9OpenBabel18OBDistanceGeometry11GetGeometryERNS_5OBMolEb
libopenbabel.so.5:_ZN9OpenBabel18OBDistanceGeometry11Set12BoundsEb
libopenbabel.so.5:_ZN9OpenBabel18OBDistanceGeometry11Set13BoundsEb
libopenbabel.so.5:_ZN9OpenBabel18OBDistanceGeometry11Set14BoundsEv
libopenbabel.so.5:_ZN9OpenBabel18OBDistanceGeometry11Set15BoundsEv
libopenbabel.so.5:_ZN9OpenBabel18OBDistanceGeometry12AddConformerEv
libopenbabel.so.5:_ZN9OpenBabel18OBDistanceGeometry13AreInSameRingEPNS_6OBAtomES2_
libopenbabel.so.5:_ZN9OpenBabel18OBDistanceGeometry13GetConformersERNS_5OBMolE
libopenbabel.so.5:_ZN9OpenBabel18OBDistanceGeometry14SetLowerBoundsEv
libopenbabel.so.5:_ZN9OpenBabel18OBDistanceGeometry14SetUpperBoundsEv
libopenbabel.so.5:_ZN9OpenBabel18OBDistanceGeometry14TriangleSmoothEi
libopenbabel.so.5:_ZN9OpenBabel18OBDistanceGeometry15GetBoundsMatrixEv
libopenbabel.so.5:_ZN9OpenBabel18OBDistanceGeometry15SetBoundsMatrixEN5Eigen6MatrixIfLin1ELin1ELi0ELin1ELin1EEE
libopenbabel.so.5:_ZN9OpenBabel18OBDistanceGeometry17GetCisTransStereoEPNS_6OBBondE
libopenbabel.so.5:_ZN9OpenBabel18OBDistanceGeometry21SetAromaticRingBoundsEv
libopenbabel.so.5:_ZN9OpenBabel18OBDistanceGeometry22CheckStereoConstraintsEv
libopenbabel.so.5:_ZN9OpenBabel18OBDistanceGeometry24CorrectStereoConstraintsEd
libopenbabel.so.5:_ZN9OpenBabel18OBDistanceGeometry5SetupERKNS_5OBMolEb
libopenbabel.so.5:_ZN9OpenBabel18OBDistanceGeometryC1ERKNS_5OBMolEb
libopenbabel.so.5:_ZN9OpenBabel18OBDistanceGeometryC1Ev
libopenbabel.so.5:_ZN9OpenBabel18OBDistanceGeometryC2ERKNS_5OBMolEb
libopenbabel.so.5:_ZN9OpenBabel18OBDistanceGeometryC2Ev
libopenbabel.so.5:_ZN9OpenBabel18OBDistanceGeometryD1Ev
libopenbabel.so.5:_ZN9OpenBabel18OBDistanceGeometryD2Ev
libopenbabel.so.5:_ZN9OpenBabel18OBExternalBondData7SetDataEPNS_6OBAtomEPNS_6OBBondEi
libopenbabel.so.5:_ZN9OpenBabel18OBExternalBondDataC1Ev
libopenbabel.so.5:_ZN9OpenBabel18OBExternalBondDataC2Ev
libopenbabel.so.5:_ZN9OpenBabel18atomRingToBondRingEPNS_5OBMolERKSt6vectorIiSaIiEE
libopenbabel.so.5:_ZN9OpenBabel18construct_c_matrixERNS_5OBMolERSt6vectorIS2_IdSaIdEESaIS4_EE
libopenbabel.so.5:_ZN9OpenBabel18construct_g_matrixERNS_5OBMolERSt6vectorIS2_IdSaIdEESaIS4_EE
libopenbabel.so.5:_ZN9OpenBabel19CartesianToInternalERSt6vectorIPNS_15OBInternalCoordESaIS2_EERNS_5OBMolE
libopenbabel.so.5:_ZN9OpenBabel19ImplicitRefToStereoERNS_5OBMolEmm
libopenbabel.so.5:_ZN9OpenBabel19InternalToCartesianERSt6vectorIPNS_15OBInternalCoordESaIS2_EERNS_5OBMolE
libopenbabel.so.5:_ZN9OpenBabel19OBIsomorphismMapper11GetInstanceEPNS_7OBQueryERKNSt7__cxx1112basic_stringIcSt11char_traitsIcESaIcEEE
libopenbabel.so.5:_ZN9OpenBabel19OBIsomorphismMapperC1EPNS_7OBQueryE
libopenbabel.so.5:_ZN9OpenBabel19OBIsomorphismMapperC2EPNS_7OBQueryE
libopenbabel.so.5:_ZN9OpenBabel19OBIsomorphismMapperD0Ev
libopenbabel.so.5:_ZN9OpenBabel19OBIsomorphismMapperD1Ev
libopenbabel.so.5:_ZN9OpenBabel19OBIsomorphismMapperD2Ev
libopenbabel.so.5:_ZN9OpenBabel19OBTetraPlanarStereoC1EPNS_5OBMolE
libopenbabel.so.5:_ZN9OpenBabel19OBTetraPlanarStereoC2EPNS_5OBMolE
libopenbabel.so.5:_ZN9OpenBabel19OBTetraPlanarStereoD0Ev
libopenbabel.so.5:_ZN9OpenBabel19OBTetraPlanarStereoD1Ev
libopenbabel.so.5:_ZN9OpenBabel19OBTetraPlanarStereoD2Ev
libopenbabel.so.5:_ZN9OpenBabel19OBTetrahedralStereo9SetConfigERKNS0_6ConfigE
libopenbabel.so.5:_ZN9OpenBabel19OBTetrahedralStereoC1EPNS_5OBMolE
libopenbabel.so.5:_ZN9OpenBabel19OBTetrahedralStereoC2EPNS_5OBMolE
libopenbabel.so.5:_ZN9OpenBabel19OBTetrahedralStereoD0Ev
libopenbabel.so.5:_ZN9OpenBabel19OBTetrahedralStereoD1Ev
libopenbabel.so.5:_ZN9OpenBabel19OBTetrahedralStereoD2Ev
libopenbabel.so.5:_ZN9OpenBabel19StereoRefToImplicitERNS_5OBMolEm
libopenbabel.so.5:_ZN9OpenBabel19convert_matrix_f_ffEPdPS0_ii
libopenbabel.so.5:_ZN9OpenBabel19convert_matrix_ff_fEPPdS0_ii
libopenbabel.so.5:_ZN9OpenBabel19implementAtomStereoERSt6vectorIiSaIiEES3_S3_S0_IdSaIdEES5_iiNSt7__cxx1112basic_stringIcSt11char_traitsIcESaIcEEE
libopenbabel.so.5:_ZN9OpenBabel19implementBondStereoESt6vectorIiSaIiEES2_RS0_IdSaIdEES5_iiNSt7__cxx1112basic_stringIcSt11char_traitsIcESaIcEEE
libopenbabel.so.5:_ZN9OpenBabel19isPotentialCisTransEPNS_6OBBondE
libopenbabel.so.5:_ZN9OpenBabel19mayHaveCisTransBondEPNS_5OBMolE
libopenbabel.so.5:_ZN9OpenBabel20CompileMoleculeQueryEPNS_5OBMolERKNS_8OBBitVecE
libopenbabel.so.5:_ZN9OpenBabel20FindStereogenicUnitsEPNS_5OBMolERKSt6vectorIjSaIjEE
libopenbabel.so.5:_ZN9OpenBabel20FindStereogenicUnitsEPNS_5OBMolERKSt6vectorIjSaIjEERKS2_IS2_ISt4pairIjjESaIS8_EESaISA_EE
libopenbabel.so.5:_ZN9OpenBabel20OBRMSDConformerScore5ScoreERNS_5OBMolEjRKSt6vectorIS3_IiSaIiEESaIS5_EERKS3_IPdSaISA_EE
libopenbabel.so.5:_ZN9OpenBabel20OBSquarePlanarStereo9SetConfigERKNS0_6ConfigE
libopenbabel.so.5:_ZN9OpenBabel20OBSquarePlanarStereoC1EPNS_5OBMolE
libopenbabel.so.5:_ZN9OpenBabel20OBSquarePlanarStereoC2EPNS_5OBMolE
libopenbabel.so.5:_ZN9OpenBabel20OBSquarePlanarStereoD0Ev
libopenbabel.so.5:_ZN9OpenBabel20OBSquarePlanarStereoD1Ev
libopenbabel.so.5:_ZN9OpenBabel20OBSquarePlanarStereoD2Ev
libopenbabel.so.5:_ZN9OpenBabel20TetStereoToWedgeHashERNS_5OBMolERSt3mapIPNS_6OBBondENS_8OBStereo13BondDirectionESt4lessIS4_ESaISt4pairIKS4_S6_EEERS2_IS4_mS8_SaIS9_ISA_mEEE
libopenbabel.so.5:_ZN9OpenBabel20count_assigned_bondsERSt6vectorIPNS_6OBBondESaIS2_EERS0_IiSaIiEE
libopenbabel.so.5:_ZN9OpenBabel20expand_kekulize_lssrEPNS_5OBMolERSt6vectorIiSaIiEES5_RS2_IPNS_6OBRingESaIS7_EERS2_IbSaIbEERS2_IPNS_6OBBondESaISF_EE
libopenbabel.so.5:_ZN9OpenBabel20findMetalloceneBondsERSt6vectorIPNS_6OBBondESaIS2_EEPNS_5OBMolERKS0_IjSaIjEE
libopenbabel.so.5:_ZN9OpenBabel21compareStringsNumbersENSt7__cxx1112basic_stringIcSt11char_traitsIcESaIcEEES5_
libopenbabel.so.5:_ZN9OpenBabel22GetCorrectedBondVectorEPNS_6OBAtomES1_i
libopenbabel.so.5:_ZN9OpenBabel22GetUnspecifiedCisTransERNS_5OBMolE
libopenbabel.so.5:_ZN9OpenBabel22OBEnergyConformerScore5ScoreERNS_5OBMolEjRKSt6vectorIS3_IiSaIiEESaIS5_EERKS3_IPdSaISA_EE
libopenbabel.so.5:_ZN9OpenBabel22OBTetraNonPlanarStereoC1EPNS_5OBMolE
libopenbabel.so.5:_ZN9OpenBabel22OBTetraNonPlanarStereoC2EPNS_5OBMolE
libopenbabel.so.5:_ZN9OpenBabel22OBTetraNonPlanarStereoD0Ev
libopenbabel.so.5:_ZN9OpenBabel22OBTetraNonPlanarStereoD1Ev
libopenbabel.so.5:_ZN9OpenBabel22OBTetraNonPlanarStereoD2Ev
libopenbabel.so.5:_ZN9OpenBabel22has_leftover_electronsEPNS_5OBMolERSt6vectorIiSaIiEE
libopenbabel.so.5:_ZN9OpenBabel22has_leftover_electronsEPNS_5OBMolERSt6vectorIiSaIiEES5_
libopenbabel.so.5:_ZN9OpenBabel22isPotentialTetrahedralEPNS_6OBAtomE
libopenbabel.so.5:_ZN9OpenBabel22potentialAromaticBondsEPNS_5OBMolERNS_8OBBitVecE
libopenbabel.so.5:_ZN9OpenBabel23CorrectBadResonanceFormERNS_5OBMolE
libopenbabel.so.5:_ZN9OpenBabel23OBStericConformerFilter6IsGoodERKNS_5OBMolERKSt6vectorIiSaIiEEPd
libopenbabel.so.5:_ZN9OpenBabel23OBStericConformerFilterC1Eddb
libopenbabel.so.5:_ZN9OpenBabel23OBStericConformerFilterC1Ev
libopenbabel.so.5:_ZN9OpenBabel23OBStericConformerFilterC2Eddb
libopenbabel.so.5:_ZN9OpenBabel23OBStericConformerFilterC2Ev
libopenbabel.so.5:_ZN9OpenBabel23extract_thermochemistryERNS_5OBMolEbPiidPdS3_S3_S3_S3_S3_S3_S3_RSt6vectorIdSaIdEE
libopenbabel.so.5:_ZN9OpenBabel23isPotentialAromaticAtomEPNS_6OBAtomE
libopenbabel.so.5:_ZN9OpenBabel24CompileAutomorphismQueryEPNS_5OBMolERKNS_8OBBitVecERKSt6vectorIjSaIjEE
libopenbabel.so.5:_ZN9OpenBabel24UpdateConformersFromTreeEPNS_5OBMolERSt6vectorIdSaIdEEPNS_14OBDiversePosesEb
libopenbabel.so.5:_ZN9OpenBabel24mayHaveTetrahedralCenterEPNS_5OBMolE
libopenbabel.so.5:_ZN9OpenBabel25findAtomWithSymmetryClassEPNS_6OBAtomEjRKSt6vectorIjSaIjEE
libopenbabel.so.5:_ZN9OpenBabel26OBElectronicTransitionData10SetEDipoleERKSt6vectorIdSaIdEE
libopenbabel.so.5:_ZN9OpenBabel26OBElectronicTransitionData26SetRotatoryStrengthsLengthERKSt6vectorIdSaIdEE
libopenbabel.so.5:_ZN9OpenBabel26OBElectronicTransitionData28SetRotatoryStrengthsVelocityERKSt6vectorIdSaIdEE
libopenbabel.so.5:_ZN9OpenBabel26OBElectronicTransitionData7SetDataERKSt6vectorIdSaIdEES5_
libopenbabel.so.5:_ZN9OpenBabel26RemoveWhiteSpaceUnderscoreERKNSt7__cxx1112basic_stringIcSt11char_traitsIcESaIcEEE
libopenbabel.so.5:_ZN9OpenBabel27OBDepictPrivateBallAndStick13DrawAtomLabelERKNSt7__cxx1112basic_stringIcSt11char_traitsIcESaIcEEEiRKNS_7vector3E
libopenbabel.so.5:_ZN9OpenBabel27OBDepictPrivateBallAndStick13GetAtomRadiusEPNS_6OBAtomE
libopenbabel.so.5:_ZN9OpenBabel27OBDepictPrivateBallAndStick14DrawSimpleBondEPNS_6OBAtomES2_ib
libopenbabel.so.5:_ZN9OpenBabel27OBDepictPrivateBallAndStick8DrawAtomEPNS_6OBAtomE
libopenbabel.so.5:_ZN9OpenBabel27containsAtLeast_1true_1paraEPNS_6OBAtomES1_RKSt6vectorINS_12OBStereoUnitESaIS3_EE
libopenbabel.so.5:_ZN9OpenBabel27containsAtLeast_1true_2paraEPNS_6OBAtomES1_RKSt6vectorINS_12OBStereoUnitESaIS3_EE
libopenbabel.so.5:_ZN9OpenBabel27findDuplicatedSymmetryClassEPNS_6OBAtomERKSt6vectorIjSaIjEE
libopenbabel.so.5:_ZN9OpenBabel28OBAtomicHeatOfFormationTable18GetHeatOfFormationENSt7__cxx1112basic_stringIcSt11char_traitsIcESaIcEEEiS6_dPdS7_S7_
libopenbabel.so.5:_ZN9OpenBabel28OBAtomicHeatOfFormationTable9ParseLineEPKc
libopenbabel.so.5:_ZN9OpenBabel28OBAtomicHeatOfFormationTableC1Ev
libopenbabel.so.5:_ZN9OpenBabel28OBAtomicHeatOfFormationTableC2Ev
libopenbabel.so.5:_ZN9OpenBabel29classifyCisTransNbrSymClassesERKSt6vectorIjSaIjEEPNS_6OBBondEPNS_6OBAtomE
libopenbabel.so.5:_ZN9OpenBabel29findDuplicatedSymmetryClassesEPNS_6OBAtomERKSt6vectorIjSaIjEE
libopenbabel.so.5:_ZN9OpenBabel29findDuplicatedSymmetryClassesEPNS_6OBAtomERKSt6vectorIjSaIjEERjS7_
libopenbabel.so.5:_ZN9OpenBabel30OBMinimizingRMSDConformerScore5ScoreERNS_5OBMolEjRKSt6vectorIS3_IiSaIiEESaIS5_EERKS3_IPdSaISA_EE
libopenbabel.so.5:_ZN9OpenBabel32OBMinimizingEnergyConformerScore5ScoreERNS_5OBMolEjRKSt6vectorIS3_IiSaIiEESaIS5_EERKS3_IPdSaISA_EE
libopenbabel.so.5:_ZN9OpenBabel32classifyTetrahedralNbrSymClassesERKSt6vectorIjSaIjEEPNS_6OBAtomE
libopenbabel.so.5:_ZN9OpenBabel37containsAtLeast_2true_2paraAssembliesEPNS_6OBAtomES1_RKSt6vectorINS_12OBStereoUnitESaIS3_EERKS2_INS_8OBBitVecESaIS8_EE
libopenbabel.so.5:_ZN9OpenBabel4LFSRC1Ejj
libopenbabel.so.5:_ZN9OpenBabel4LFSRC2Ejj
libopenbabel.so.5:_ZN9OpenBabel4SwabEi
libopenbabel.so.5:_ZN9OpenBabel4TrimERNSt7__cxx1112basic_stringIcSt11char_traitsIcESaIcEEE
libopenbabel.so.5:_ZN9OpenBabel5IsNanERKd
libopenbabel.so.5:_ZN9OpenBabel5OBMol10AddResidueERNS_9OBResidueE
libopenbabel.so.5:_ZN9OpenBabel5OBMol10CreateAtomEv
libopenbabel.so.5:_ZN9OpenBabel5OBMol10CreateBondEv
libopenbabel.so.5:_ZN9OpenBabel5OBMol10DeleteAtomEPNS_6OBAtomEb
libopenbabel.so.5:_ZN9OpenBabel5OBMol10DeleteBondEPNS_6OBBondEb
libopenbabel.so.5:_ZN9OpenBabel5OBMol10FindAnglesEv
libopenbabel.so.5:_ZN9OpenBabel5OBMol10GetFormulaB5cxx11Ev
libopenbabel.so.5:_ZN9OpenBabel5OBMol10GetTorsionEPNS_6OBAtomES2_S2_S2_
libopenbabel.so.5:_ZN9OpenBabel5OBMol10GetTorsionEiiii
libopenbabel.so.5:_ZN9OpenBabel5OBMol10InsertAtomERNS_6OBAtomE
libopenbabel.so.5:_ZN9OpenBabel5OBMol10NewResidueEv
libopenbabel.so.5:_ZN9OpenBabel5OBMol10SetFormulaENSt7__cxx1112basic_stringIcSt11char_traitsIcESaIcEEE
libopenbabel.so.5:_ZN9OpenBabel5OBMol10SetTorsionEPNS_6OBAtomES2_S2_S2_d
libopenbabel.so.5:_ZN9OpenBabel5OBMol10StripSaltsEi
libopenbabel.so.5:_ZN9OpenBabel5OBMol11BeginModifyEv
libopenbabel.so.5:_ZN9OpenBabel5OBMol11DestroyAtomEPNS_6OBAtomE
libopenbabel.so.5:_ZN9OpenBabel5OBMol11DestroyBondEPNS_6OBBondE
libopenbabel.so.5:_ZN9OpenBabel5OBMol11GetEnergiesEv
libopenbabel.so.5:_ZN9OpenBabel5OBMol11GetGIVectorERSt6vectorIjSaIjEE
libopenbabel.so.5:_ZN9OpenBabel5OBMol11NumHvyAtomsEv
libopenbabel.so.5:_ZN9OpenBabel5OBMol11SetEnergiesERSt6vectorIdSaIdEE
libopenbabel.so.5:_ZN9OpenBabel5OBMol11expandcycleEPNS_6OBAtomERNS_8OBBitVecERKS3_
libopenbabel.so.5:_ZN9OpenBabel5OBMol12AddHydrogensEPNS_6OBAtomE
libopenbabel.so.5:_ZN9OpenBabel5OBMol12AddHydrogensEbbd
libopenbabel.so.5:_ZN9OpenBabel5OBMol12CorrectForPHEd
libopenbabel.so.5:_ZN9OpenBabel5OBMol12FindChildrenERSt6vectorIPNS_6OBAtomESaIS3_EES3_S3_
libopenbabel.so.5:_ZN9OpenBabel5OBMol12FindChildrenERSt6vectorIiSaIiEEii
libopenbabel.so.5:_ZN9OpenBabel5OBMol12FindTorsionsEv
libopenbabel.so.5:_ZN9OpenBabel5OBMol12GetExactMassEb
libopenbabel.so.5:_ZN9OpenBabel5OBMol12GetGIDVectorERSt6vectorIjSaIjEE
libopenbabel.so.5:_ZN9OpenBabel5OBMol12GetGTDVectorERSt6vectorIiSaIiEE
libopenbabel.so.5:_ZN9OpenBabel5OBMol12SetConformerEi
libopenbabel.so.5:_ZN9OpenBabel5OBMol13AreInSameRingEPNS_6OBAtomES2_
libopenbabel.so.5:_ZN9OpenBabel5OBMol13CopyConformerEPdi
libopenbabel.so.5:_ZN9OpenBabel5OBMol13CreateResidueEv
libopenbabel.so.5:_ZN9OpenBabel5OBMol13DeleteResidueEPNS_9OBResidueEb
libopenbabel.so.5:_ZN9OpenBabel5OBMol13RenumberAtomsERSt6vectorIPNS_6OBAtomESaIS3_EE
libopenbabel.so.5:_ZN9OpenBabel5OBMol13RenumberAtomsESt6vectorIiSaIiEE
libopenbabel.so.5:_ZN9OpenBabel5OBMol13SetConformersERSt6vectorIPdSaIS2_EE
libopenbabel.so.5:_ZN9OpenBabel5OBMol14ConnectTheDotsEv
libopenbabel.so.5:_ZN9OpenBabel5OBMol14ContigFragListERSt6vectorIS1_IiSaIiEESaIS3_EE
libopenbabel.so.5:_ZN9OpenBabel5OBMol14DeleteHydrogenEPNS_6OBAtomE
libopenbabel.so.5:_ZN9OpenBabel5OBMol14DestroyResidueEPNS_9OBResidueE
libopenbabel.so.5:_ZN9OpenBabel5OBMol14GetTotalChargeEv
libopenbabel.so.5:_ZN9OpenBabel5OBMol14SetCoordinatesEPd
libopenbabel.so.5:_ZN9OpenBabel5OBMol14SetTotalChargeEi
libopenbabel.so.5:_ZN9OpenBabel5OBMol14start_kekulizeERSt6vectorIPNS_6OBAtomESaIS3_EERS1_IiSaIiEE
libopenbabel.so.5:_ZN9OpenBabel5OBMol15AddNewHydrogensENS_12HydrogenTypeEbd
libopenbabel.so.5:_ZN9OpenBabel5OBMol15DeleteConformerEi
libopenbabel.so.5:_ZN9OpenBabel5OBMol15DeleteHydrogensEPNS_6OBAtomE
libopenbabel.so.5:_ZN9OpenBabel5OBMol15DeleteHydrogensEv
libopenbabel.so.5:_ZN9OpenBabel5OBMol15GetNextFragmentERNS_16OBMolAtomDFSIterERS0_
libopenbabel.so.5:_ZN9OpenBabel5OBMol15MakeDativeBondsEv
libopenbabel.so.5:_ZN9OpenBabel5OBMol15ToInertialFrameEiPd
libopenbabel.so.5:_ZN9OpenBabel5OBMol15ToInertialFrameEv
libopenbabel.so.5:_ZN9OpenBabel5OBMol15expand_kekulizeEiRSt6vectorIiSaIiEES4_
libopenbabel.so.5:_ZN9OpenBabel5OBMol16ClassDescriptionEv
libopenbabel.so.5:_ZN9OpenBabel5OBMol16ConvertZeroBondsEv
libopenbabel.so.5:_ZN9OpenBabel5OBMol16GetInternalCoordEv
libopenbabel.so.5:_ZN9OpenBabel5OBMol16GetSpacedFormulaB5cxx11EiPKcb
libopenbabel.so.5:_ZN9OpenBabel5OBMol16HasNonZeroCoordsEv
libopenbabel.so.5:_ZN9OpenBabel5OBMol16SetInternalCoordESt6vectorIPNS_15OBInternalCoordESaIS3_EE
libopenbabel.so.5:_ZN9OpenBabel5OBMol17AddPolarHydrogensEv
libopenbabel.so.5:_ZN9OpenBabel5OBMol17DoTransformationsEPKSt3mapINSt7__cxx1112basic_stringIcSt11char_traitsIcESaIcEEES7_St4lessIS7_ESaISt4pairIKS7_S7_EEEPNS_12OBConversionE
libopenbabel.so.5:_ZN9OpenBabel5OBMol18ConvertDativeBondsEv
libopenbabel.so.5:_ZN9OpenBabel5OBMol18PerceiveBondOrdersEv
libopenbabel.so.5:_ZN9OpenBabel5OBMol19FindLargestFragmentERNS_8OBBitVecE
libopenbabel.so.5:_ZN9OpenBabel5OBMol19PerceiveKekuleBondsEv
libopenbabel.so.5:_ZN9OpenBabel5OBMol20AddNonPolarHydrogensEv
libopenbabel.so.5:_ZN9OpenBabel5OBMol20DeletePolarHydrogensEv
libopenbabel.so.5:_ZN9OpenBabel5OBMol21FindRingAtomsAndBondsEv
libopenbabel.so.5:_ZN9OpenBabel5OBMol22AssignSpinMultiplicityEb
libopenbabel.so.5:_ZN9OpenBabel5OBMol22NewPerceiveKekuleBondsEv
libopenbabel.so.5:_ZN9OpenBabel5OBMol23DeleteNonPolarHydrogensEv
libopenbabel.so.5:_ZN9OpenBabel5OBMol24AssignTotalChargeToAtomsEi
libopenbabel.so.5:_ZN9OpenBabel5OBMol24GetTotalSpinMultiplicityEv
libopenbabel.so.5:_ZN9OpenBabel5OBMol24SetTotalSpinMultiplicityEj
libopenbabel.so.5:_ZN9OpenBabel5OBMol25has_no_leftover_electronsERSt6vectorIiSaIiEE
libopenbabel.so.5:_ZN9OpenBabel5OBMol5AlignEPNS_6OBAtomES2_RNS_7vector3ES4_
libopenbabel.so.5:_ZN9OpenBabel5OBMol5ClearEv
libopenbabel.so.5:_ZN9OpenBabel5OBMol5Has2DEb
libopenbabel.so.5:_ZN9OpenBabel5OBMol5Has3DEv
libopenbabel.so.5:_ZN9OpenBabel5OBMol6CenterEi
libopenbabel.so.5:_ZN9OpenBabel5OBMol6CenterEv
libopenbabel.so.5:_ZN9OpenBabel5OBMol6RotateEPA3_Kd
libopenbabel.so.5:_ZN9OpenBabel5OBMol6RotateEPKd
libopenbabel.so.5:_ZN9OpenBabel5OBMol6RotateEPKdi
libopenbabel.so.5:_ZN9OpenBabel5OBMol7AddAtomERNS_6OBAtomEb
libopenbabel.so.5:_ZN9OpenBabel5OBMol7AddBondERNS_6OBBondE
libopenbabel.so.5:_ZN9OpenBabel5OBMol7AddBondEiiiii
libopenbabel.so.5:_ZN9OpenBabel5OBMol7GetLSSREv
libopenbabel.so.5:_ZN9OpenBabel5OBMol7GetSSSREv
libopenbabel.so.5:_ZN9OpenBabel5OBMol7NewAtomEm
libopenbabel.so.5:_ZN9OpenBabel5OBMol7NewAtomEv
libopenbabel.so.5:_ZN9OpenBabel5OBMol7NewBondEm
libopenbabel.so.5:_ZN9OpenBabel5OBMol7NewBondEv
libopenbabel.so.5:_ZN9OpenBabel5OBMol8FindLSSREv
libopenbabel.so.5:_ZN9OpenBabel5OBMol8FindSSSREv
libopenbabel.so.5:_ZN9OpenBabel5OBMol8GetAngleEPNS_6OBAtomES2_S2_
libopenbabel.so.5:_ZN9OpenBabel5OBMol8GetMolWtEb
libopenbabel.so.5:_ZN9OpenBabel5OBMol8IsChiralEv
libopenbabel.so.5:_ZN9OpenBabel5OBMol8KekulizeEv
libopenbabel.so.5:_ZN9OpenBabel5OBMol8NextAtomERN9__gnu_cxx17__normal_iteratorIPPNS_6OBAtomESt6vectorIS4_SaIS4_EEEE
libopenbabel.so.5:_ZN9OpenBabel5OBMol8NextBondERN9__gnu_cxx17__normal_iteratorIPPNS_6OBBondESt6vectorIS4_SaIS4_EEEE
libopenbabel.so.5:_ZN9OpenBabel5OBMol8SeparateEi
libopenbabel.so.5:_ZN9OpenBabel5OBMol8SetTitleEPKc
libopenbabel.so.5:_ZN9OpenBabel5OBMol8SetTitleERNSt7__cxx1112basic_stringIcSt11char_traitsIcESaIcEEE
libopenbabel.so.5:_ZN9OpenBabel5OBMol8getordenEPNS_6OBAtomE
libopenbabel.so.5:_ZN9OpenBabel5OBMol9BeginAtomERN9__gnu_cxx17__normal_iteratorIPPNS_6OBAtomESt6vectorIS4_SaIS4_EEEE
libopenbabel.so.5:_ZN9OpenBabel5OBMol9BeginBondERN9__gnu_cxx17__normal_iteratorIPPNS_6OBBondESt6vectorIS4_SaIS4_EEEE
libopenbabel.so.5:_ZN9OpenBabel5OBMol9EndModifyEb
libopenbabel.so.5:_ZN9OpenBabel5OBMol9GetEnergyEi
libopenbabel.so.5:_ZN9OpenBabel5OBMol9NumRotorsEb
libopenbabel.so.5:_ZN9OpenBabel5OBMol9TranslateERKNS_7vector3E
libopenbabel.so.5:_ZN9OpenBabel5OBMol9TranslateERKNS_7vector3Ei
libopenbabel.so.5:_ZN9OpenBabel5OBMolC1ERKS0_
libopenbabel.so.5:_ZN9OpenBabel5OBMolC1Ev
libopenbabel.so.5:_ZN9OpenBabel5OBMolC2ERKS0_
libopenbabel.so.5:_ZN9OpenBabel5OBMolC2Ev
libopenbabel.so.5:_ZN9OpenBabel5OBMolD0Ev
libopenbabel.so.5:_ZN9OpenBabel5OBMolD1Ev
libopenbabel.so.5:_ZN9OpenBabel5OBMolD2Ev
libopenbabel.so.5:_ZN9OpenBabel5OBMolaSERKS0_
libopenbabel.so.5:_ZN9OpenBabel5OBMolpLERKS0_
libopenbabel.so.5:_ZN9OpenBabel5crossERKNS_7vector3ES2_
libopenbabel.so.5:_ZN9OpenBabel5patty10read_rulesERKNSt7__cxx1112basic_stringIcSt11char_traitsIcESaIcEEE
libopenbabel.so.5:_ZN9OpenBabel5patty11type_to_intERKNSt7__cxx1112basic_stringIcSt11char_traitsIcESaIcEEEb
libopenbabel.so.5:_ZN9OpenBabel5patty12assign_rulesERSt6vectorINSt7__cxx1112basic_stringIcSt11char_traitsIcESaIcEEESaIS7_EE
libopenbabel.so.5:_ZN9OpenBabel5patty12assign_typesERNS_5OBMolERSt6vectorINSt7__cxx1112basic_stringIcSt11char_traitsIcESaIcEEESaIS9_EE
libopenbabel.so.5:_ZN9OpenBabel5patty12assign_typesERNS_5OBMolERSt6vectorIiSaIiEE
libopenbabel.so.5:_ZN9OpenBabel5patty6IstypeERKNSt7__cxx1112basic_stringIcSt11char_traitsIcESaIcEEE
libopenbabel.so.5:_ZN9OpenBabel6IsNearERKdS1_d
libopenbabel.so.5:_ZN9OpenBabel6OBAtom10DeleteBondEPNS_6OBBondE
libopenbabel.so.5:_ZN9OpenBabel6OBAtom10GetResidueEb
libopenbabel.so.5:_ZN9OpenBabel6OBAtom10GetResidueEv
libopenbabel.so.5:_ZN9OpenBabel6OBAtom10IsOneThreeEPS0_
libopenbabel.so.5:_ZN9OpenBabel6OBAtom10SetIsotopeEj
libopenbabel.so.5:_ZN9OpenBabel6OBAtom11GetDistanceEPNS_7vector3E
libopenbabel.so.5:_ZN9OpenBabel6OBAtom11GetDistanceEPS0_
libopenbabel.so.5:_ZN9OpenBabel6OBAtom11GetDistanceEi
libopenbabel.so.5:_ZN9OpenBabel6OBAtom11GetNextAtomEv
libopenbabel.so.5:_ZN9OpenBabel6OBAtom11IsConnectedEPS0_
libopenbabel.so.5:_ZN9OpenBabel6OBAtom11NextNbrAtomERN9__gnu_cxx17__normal_iteratorIPPNS_6OBBondESt6vectorIS4_SaIS4_EEEE
libopenbabel.so.5:_ZN9OpenBabel6OBAtom12BeginNbrAtomERN9__gnu_cxx17__normal_iteratorIPPNS_6OBBondESt6vectorIS4_SaIS4_EEEE
libopenbabel.so.5:_ZN9OpenBabel6OBAtom12IsHbondDonorEv
libopenbabel.so.5:_ZN9OpenBabel6OBAtom12IsHeteroatomEv
libopenbabel.so.5:_ZN9OpenBabel6OBAtom13IsHbondDonorHEv
libopenbabel.so.5:_ZN9OpenBabel6OBAtom13IsNitroOxygenEv
libopenbabel.so.5:_ZN9OpenBabel6OBAtom13MatchesSMARTSEPKc
libopenbabel.so.5:_ZN9OpenBabel6OBAtom13SetHybAndGeomEi
libopenbabel.so.5:_ZN9OpenBabel6OBAtom14HasBondOfOrderEj
libopenbabel.so.5:_ZN9OpenBabel6OBAtom15IsAmideNitrogenEv
libopenbabel.so.5:_ZN9OpenBabel6OBAtom15IsHbondAcceptorEv
libopenbabel.so.5:_ZN9OpenBabel6OBAtom15IsPolarHydrogenEv
libopenbabel.so.5:_ZN9OpenBabel6OBAtom15IsSulfateOxygenEv
libopenbabel.so.5:_ZN9OpenBabel6OBAtom16AverageBondAngleEv
libopenbabel.so.5:_ZN9OpenBabel6OBAtom16GetNewBondVectorERNS_7vector3Ed
libopenbabel.so.5:_ZN9OpenBabel6OBAtom16GetPartialChargeEv
libopenbabel.so.5:_ZN9OpenBabel6OBAtom16HasNonSingleBondEv
libopenbabel.so.5:_ZN9OpenBabel6OBAtom16HighestBondOrderEv
libopenbabel.so.5:_ZN9OpenBabel6OBAtom16IsAromaticNOxideEv
libopenbabel.so.5:_ZN9OpenBabel6OBAtom16IsCarboxylOxygenEv
libopenbabel.so.5:_ZN9OpenBabel6OBAtom17CountBondsOfOrderEj
libopenbabel.so.5:_ZN9OpenBabel6OBAtom17HasAlphaBetaUnsatEb
libopenbabel.so.5:_ZN9OpenBabel6OBAtom17IsPhosphateOxygenEv
libopenbabel.so.5:_ZN9OpenBabel6OBAtom17SmallestBondAngleEv
libopenbabel.so.5:_ZN9OpenBabel6OBAtom18IsNonPolarHydrogenEv
libopenbabel.so.5:_ZN9OpenBabel6OBAtom21IsHbondAcceptorSimpleEv
libopenbabel.so.5:_ZN9OpenBabel6OBAtom5ClearEv
libopenbabel.so.5:_ZN9OpenBabel6OBAtom7GetBondEPS0_
libopenbabel.so.5:_ZN9OpenBabel6OBAtom7GetTypeEv
libopenbabel.so.5:_ZN9OpenBabel6OBAtom7IsAxialEv
libopenbabel.so.5:_ZN9OpenBabel6OBAtom7IsMetalEv
libopenbabel.so.5:_ZN9OpenBabel6OBAtom7SetTypeEPKc
libopenbabel.so.5:_ZN9OpenBabel6OBAtom7SetTypeERKNSt7__cxx1112basic_stringIcSt11char_traitsIcESaIcEEE
libopenbabel.so.5:_ZN9OpenBabel6OBAtom8GetAngleEPS0_S1_
libopenbabel.so.5:_ZN9OpenBabel6OBAtom8GetAngleEii
libopenbabel.so.5:_ZN9OpenBabel6OBAtom8IsChiralEv
libopenbabel.so.5:_ZN9OpenBabel6OBAtom8NextBondERN9__gnu_cxx17__normal_iteratorIPPNS_6OBBondESt6vectorIS4_SaIS4_EEEE
libopenbabel.so.5:_ZN9OpenBabel6OBAtom9BeginBondERN9__gnu_cxx17__normal_iteratorIPPNS_6OBBondESt6vectorIS4_SaIS4_EEEE
libopenbabel.so.5:_ZN9OpenBabel6OBAtom9DuplicateEPS0_
libopenbabel.so.5:_ZN9OpenBabel6OBAtom9GetVectorEv
libopenbabel.so.5:_ZN9OpenBabel6OBAtom9HtoMethylEv
libopenbabel.so.5:_ZN9OpenBabel6OBAtom9IsNotCorHEv
libopenbabel.so.5:_ZN9OpenBabel6OBAtom9IsOneFourEPS0_
libopenbabel.so.5:_ZN9OpenBabel6OBAtom9SetVectorERKNS_7vector3E
libopenbabel.so.5:_ZN9OpenBabel6OBAtom9SetVectorEddd
libopenbabel.so.5:_ZN9OpenBabel6OBAtom9SetVectorEv
libopenbabel.so.5:_ZN9OpenBabel6OBAtomC1Ev
libopenbabel.so.5:_ZN9OpenBabel6OBAtomC2Ev
libopenbabel.so.5:_ZN9OpenBabel6OBAtomD0Ev
libopenbabel.so.5:_ZN9OpenBabel6OBAtomD1Ev
libopenbabel.so.5:_ZN9OpenBabel6OBAtomD2Ev
libopenbabel.so.5:_ZN9OpenBabel6OBAtomaSERS0_
libopenbabel.so.5:_ZN9OpenBabel6OBBase10DeleteDataEPNS_13OBGenericDataE
libopenbabel.so.5:_ZN9OpenBabel6OBBase10DeleteDataERKNSt7__cxx1112basic_stringIcSt11char_traitsIcESaIcEEE
libopenbabel.so.5:_ZN9OpenBabel6OBBase10DeleteDataERSt6vectorIPNS_13OBGenericDataESaIS3_EE
libopenbabel.so.5:_ZN9OpenBabel6OBBase10DeleteDataEj
libopenbabel.so.5:_ZN9OpenBabel6OBBase10GetAllDataEj
libopenbabel.so.5:_ZN9OpenBabel6OBBase5ClearEv
libopenbabel.so.5:_ZN9OpenBabel6OBBase7GetDataENS_10DataOriginE
libopenbabel.so.5:_ZN9OpenBabel6OBBase7GetDataEPKc
libopenbabel.so.5:_ZN9OpenBabel6OBBase7GetDataERKNSt7__cxx1112basic_stringIcSt11char_traitsIcESaIcEEE
libopenbabel.so.5:_ZN9OpenBabel6OBBase7GetDataEj
libopenbabel.so.5:_ZN9OpenBabel6OBBase7HasDataEPKc
libopenbabel.so.5:_ZN9OpenBabel6OBBase7HasDataERKNSt7__cxx1112basic_stringIcSt11char_traitsIcESaIcEEE
libopenbabel.so.5:_ZN9OpenBabel6OBBase7HasDataEj
libopenbabel.so.5:_ZN9OpenBabel6OBBase9CloneDataEPNS_13OBGenericDataE
libopenbabel.so.5:_ZN9OpenBabel6OBBond10IsCarbonylEv
libopenbabel.so.5:_ZN9OpenBabel6OBBond10SetKDoubleEv
libopenbabel.so.5:_ZN9OpenBabel6OBBond10SetKSingleEv
libopenbabel.so.5:_ZN9OpenBabel6OBBond10SetKTripleEv
libopenbabel.so.5:_ZN9OpenBabel6OBBond12SetBondOrderEi
libopenbabel.so.5:_ZN9OpenBabel6OBBond14IsPrimaryAmideEv
libopenbabel.so.5:_ZN9OpenBabel6OBBond15IsTertiaryAmideEv
libopenbabel.so.5:_ZN9OpenBabel6OBBond16IsSecondaryAmideEv
libopenbabel.so.5:_ZN9OpenBabel6OBBond20IsDoubleBondGeometryEv
libopenbabel.so.5:_ZN9OpenBabel6OBBond3SetEiPNS_6OBAtomES2_ii
libopenbabel.so.5:_ZN9OpenBabel6OBBond5SetBOEi
libopenbabel.so.5:_ZN9OpenBabel6OBBond7IsAmideEv
libopenbabel.so.5:_ZN9OpenBabel6OBBond7IsEsterEv
libopenbabel.so.5:_ZN9OpenBabel6OBBond7IsRotorEb
libopenbabel.so.5:_ZN9OpenBabel6OBBond8IsDoubleEv
libopenbabel.so.5:_ZN9OpenBabel6OBBond8IsSingleEv
libopenbabel.so.5:_ZN9OpenBabel6OBBond8IsTripleEv
libopenbabel.so.5:_ZN9OpenBabel6OBBond9IsClosureEv
libopenbabel.so.5:_ZN9OpenBabel6OBBond9IsKDoubleEv
libopenbabel.so.5:_ZN9OpenBabel6OBBond9IsKSingleEv
libopenbabel.so.5:_ZN9OpenBabel6OBBond9IsKTripleEv
libopenbabel.so.5:_ZN9OpenBabel6OBBond9SetLengthEPNS_6OBAtomEd
libopenbabel.so.5:_ZN9OpenBabel6OBBond9SetLengthEd
libopenbabel.so.5:_ZN9OpenBabel6OBBondC1Ev
libopenbabel.so.5:_ZN9OpenBabel6OBBondC2Ev
libopenbabel.so.5:_ZN9OpenBabel6OBBondD0Ev
libopenbabel.so.5:_ZN9OpenBabel6OBBondD1Ev
libopenbabel.so.5:_ZN9OpenBabel6OBBondD2Ev
libopenbabel.so.5:_ZN9OpenBabel6OBGrid4InitERNS_5OBMolE
libopenbabel.so.5:_ZN9OpenBabel6OBRing10IsAromaticEv
libopenbabel.so.5:_ZN9OpenBabel6OBRing11GetRootAtomEv
libopenbabel.so.5:_ZN9OpenBabel6OBRing19findCenterAndNormalERNS_7vector3ES2_S2_
libopenbabel.so.5:_ZN9OpenBabel6OBRing7GetTypeEv
libopenbabel.so.5:_ZN9OpenBabel6OBRing7SetTypeEPc
libopenbabel.so.5:_ZN9OpenBabel6OBRing7SetTypeERNSt7__cxx1112basic_stringIcSt11char_traitsIcESaIcEEE
libopenbabel.so.5:_ZN9OpenBabel6OBRing8IsMemberEPNS_6OBAtomE
libopenbabel.so.5:_ZN9OpenBabel6OBRing8IsMemberEPNS_6OBBondE
libopenbabel.so.5:_ZN9OpenBabel6OBRingC1ERKS0_
libopenbabel.so.5:_ZN9OpenBabel6OBRingC1ERSt6vectorIiSaIiEEi
libopenbabel.so.5:_ZN9OpenBabel6OBRingC2ERKS0_
libopenbabel.so.5:_ZN9OpenBabel6OBRingC2ERSt6vectorIiSaIiEEi
libopenbabel.so.5:_ZN9OpenBabel6OBRingaSERKS0_
libopenbabel.so.5:_ZN9OpenBabel6ignoreERSiRKNSt7__cxx1112basic_stringIcSt11char_traitsIcESaIcEEE
libopenbabel.so.5:_ZN9OpenBabel7OBAlign11SimpleAlignERKN5Eigen6MatrixIdLin1ELin1ELi0ELin1ELin1EEE
libopenbabel.so.5:_ZN9OpenBabel7OBAlign12GetAlignmentEv
libopenbabel.so.5:_ZN9OpenBabel7OBAlign12GetRotMatrixEv
libopenbabel.so.5:_ZN9OpenBabel7OBAlign12MoveToOriginERN5Eigen6MatrixIdLin1ELin1ELi0ELin1ELin1EEE
libopenbabel.so.5:_ZN9OpenBabel7OBAlign12SetTargetMolERKNS_5OBMolE
libopenbabel.so.5:_ZN9OpenBabel7OBAlign12UpdateCoordsEPNS_5OBMolE
libopenbabel.so.5:_ZN9OpenBabel7OBAlign13TheobaldAlignERKN5Eigen6MatrixIdLin1ELin1ELi0ELin1ELin1EEE
libopenbabel.so.5:_ZN9OpenBabel7OBAlign15VectorsToMatrixEPKSt6vectorINS_7vector3ESaIS2_EERN5Eigen6MatrixIdLin1ELin1ELi0ELin1ELin1EEE
libopenbabel.so.5:_ZN9OpenBabel7OBAlign5AlignEv
libopenbabel.so.5:_ZN9OpenBabel7OBAlign6SetRefERKSt6vectorINS_7vector3ESaIS2_EE
libopenbabel.so.5:_ZN9OpenBabel7OBAlign7GetRMSDEv
libopenbabel.so.5:_ZN9OpenBabel7OBAlign9SetMethodENS0_11AlignMethodE
libopenbabel.so.5:_ZN9OpenBabel7OBAlign9SetRefMolERKNS_5OBMolE
libopenbabel.so.5:_ZN9OpenBabel7OBAlign9SetTargetERKSt6vectorINS_7vector3ESaIS2_EE
libopenbabel.so.5:_ZN9OpenBabel7OBAlignC1ERKNS_5OBMolES3_bb
libopenbabel.so.5:_ZN9OpenBabel7OBAlignC1ERKSt6vectorINS_7vector3ESaIS2_EES6_
libopenbabel.so.5:_ZN9OpenBabel7OBAlignC1Ebb
libopenbabel.so.5:_ZN9OpenBabel7OBAlignC2ERKNS_5OBMolES3_bb
libopenbabel.so.5:_ZN9OpenBabel7OBAlignC2ERKSt6vectorINS_7vector3ESaIS2_EES6_
libopenbabel.so.5:_ZN9OpenBabel7OBAlignC2Ebb
libopenbabel.so.5:_ZN9OpenBabel7OBAngle11SortByIndexEv
libopenbabel.so.5:_ZN9OpenBabel7OBAngle5ClearEv
libopenbabel.so.5:_ZN9OpenBabel7OBAngle8GetAtomsEv
libopenbabel.so.5:_ZN9OpenBabel7OBAngle8SetAtomsEPNS_6OBAtomES2_S2_
libopenbabel.so.5:_ZN9OpenBabel7OBAngle8SetAtomsERNS_6tripleIPNS_6OBAtomES3_S3_EE
libopenbabel.so.5:_ZN9OpenBabel7OBAngleC1EPNS_6OBAtomES2_S2_
libopenbabel.so.5:_ZN9OpenBabel7OBAngleC1ERKS0_
libopenbabel.so.5:_ZN9OpenBabel7OBAngleC1Ev
libopenbabel.so.5:_ZN9OpenBabel7OBAngleC2EPNS_6OBAtomES2_S2_
libopenbabel.so.5:_ZN9OpenBabel7OBAngleC2ERKS0_
libopenbabel.so.5:_ZN9OpenBabel7OBAngleC2Ev
libopenbabel.so.5:_ZN9OpenBabel7OBAngleaSERKS0_
libopenbabel.so.5:_ZN9OpenBabel7OBAngleeqERKS0_
libopenbabel.so.5:_ZN9OpenBabel7OBErrorC1ERKNSt7__cxx1112basic_stringIcSt11char_traitsIcESaIcEEES8_S8_S8_S8_NS_14obMessageLevelE
libopenbabel.so.5:_ZN9OpenBabel7OBErrorC2ERKNSt7__cxx1112basic_stringIcSt11char_traitsIcESaIcEEES8_S8_S8_S8_NS_14obMessageLevelE
libopenbabel.so.5:_ZN9OpenBabel7OBRTree10GetAtomIdxEv
libopenbabel.so.5:_ZN9OpenBabel7OBRTree10PathToRootERSt6vectorIPNS_6OBAtomESaIS3_EE
libopenbabel.so.5:_ZN9OpenBabel7OBRTreeC1EPNS_6OBAtomEPS0_
libopenbabel.so.5:_ZN9OpenBabel7OBRTreeC2EPNS_6OBAtomEPS0_
libopenbabel.so.5:_ZN9OpenBabel7OBRotor10PrecomputeEPd
libopenbabel.so.5:_ZN9OpenBabel7OBRotor11CalcTorsionEPd
libopenbabel.so.5:_ZN9OpenBabel7OBRotor11SetRotAtomsERSt6vectorIiSaIiEE
libopenbabel.so.5:_ZN9OpenBabel7OBRotor14CalcBondLengthEPd
libopenbabel.so.5:_ZN9OpenBabel7OBRotor16SetDihedralAtomsEPi
libopenbabel.so.5:_ZN9OpenBabel7OBRotor16SetDihedralAtomsERSt6vectorIiSaIiEE
libopenbabel.so.5:_ZN9OpenBabel7OBRotor22RemoveSymTorsionValuesEi
libopenbabel.so.5:_ZN9OpenBabel7OBRotor3SetEPddddd
libopenbabel.so.5:_ZN9OpenBabel7OBRotor3SetEPdi
libopenbabel.so.5:_ZN9OpenBabel7OBRotor7PrecalcERSt6vectorIPdSaIS2_EE
libopenbabel.so.5:_ZN9OpenBabel7OBRotor8SetRingsEPNS_6OBBondE
libopenbabel.so.5:_ZN9OpenBabel7OBRotor8SetRotorEPdii
libopenbabel.so.5:_ZN9OpenBabel7OBRotorC1Ev
libopenbabel.so.5:_ZN9OpenBabel7OBRotorC2Ev
libopenbabel.so.5:_ZN9OpenBabel7ToLowerEPc
libopenbabel.so.5:_ZN9OpenBabel7ToLowerERNSt7__cxx1112basic_stringIcSt11char_traitsIcESaIcEEE
libopenbabel.so.5:_ZN9OpenBabel7ToUpperEPc
libopenbabel.so.5:_ZN9OpenBabel7ToUpperERNSt7__cxx1112basic_stringIcSt11char_traitsIcESaIcEEE
libopenbabel.so.5:_ZN9OpenBabel7TolowerERNSt7__cxx1112basic_stringIcSt11char_traitsIcESaIcEEE
libopenbabel.so.5:_ZN9OpenBabel7ToupperERNSt7__cxx1112basic_stringIcSt11char_traitsIcESaIcEEE
libopenbabel.so.5:_ZN9OpenBabel7addNbrsERNS_8OBBitVecEPNS_6OBAtomERKS0_RKSt6vectorIPNS_6OBBondESaIS8_EE
libopenbabel.so.5:_ZN9OpenBabel7addNbrsERNS_8OBBitVecEPNS_6OBAtomES3_
libopenbabel.so.5:_ZN9OpenBabel7indexOfENSt7__cxx1112basic_stringIcSt11char_traitsIcESaIcEEES5_i
libopenbabel.so.5:_ZN9OpenBabel7vector316randomUnitVectorEPNS_8OBRandomE
libopenbabel.so.5:_ZN9OpenBabel7vector39normalizeEv
libopenbabel.so.5:_ZN9OpenBabel7vector3mLERKNS_9matrix3x3E
libopenbabel.so.5:_ZN9OpenBabel8CubeRootEd
libopenbabel.so.5:_ZN9OpenBabel8FptIndex10ReadHeaderEPSi
libopenbabel.so.5:_ZN9OpenBabel8FptIndex4ReadEPSi
libopenbabel.so.5:_ZN9OpenBabel8FptIndex7CheckFPEv
libopenbabel.so.5:_ZN9OpenBabel8GetAngleEPNS_6OBAtomES1_S1_
libopenbabel.so.5:_ZN9OpenBabel8OBBitVec10FromStringERKNSt7__cxx1112basic_stringIcSt11char_traitsIcESaIcEEEi
libopenbabel.so.5:_ZN9OpenBabel8OBBitVec10FromVecIntERKSt6vectorIiSaIiEE
libopenbabel.so.5:_ZN9OpenBabel8OBBitVec10SetRangeOnEjj
libopenbabel.so.5:_ZN9OpenBabel8OBBitVec11SetRangeOffEjj
libopenbabel.so.5:_ZN9OpenBabel8OBBitVec4FoldEj
libopenbabel.so.5:_ZN9OpenBabel8OBBitVec5ClearEv
libopenbabel.so.5:_ZN9OpenBabel8OBBitVec8SetBitOnEj
libopenbabel.so.5:_ZN9OpenBabel8OBBitVec9SetBitOffEj
libopenbabel.so.5:_ZN9OpenBabel8OBBitVecaNERKS0_
libopenbabel.so.5:_ZN9OpenBabel8OBBitVecaSERKS0_
libopenbabel.so.5:_ZN9OpenBabel8OBBitVeceOERKS0_
libopenbabel.so.5:_ZN9OpenBabel8OBBitVecmIERKS0_
libopenbabel.so.5:_ZN9OpenBabel8OBBitVecoRERKS0_
libopenbabel.so.5:_ZN9OpenBabel8OBBitVecpLERKS0_
libopenbabel.so.5:_ZN9OpenBabel8OBDepict11SetFontSizeEib
libopenbabel.so.5:_ZN9OpenBabel8OBDepict11SetPenWidthEd
libopenbabel.so.5:_ZN9OpenBabel8OBDepict12ClearOptionsEv
libopenbabel.so.5:_ZN9OpenBabel8OBDepict12DrawMoleculeEPNS_5OBMolE
libopenbabel.so.5:_ZN9OpenBabel8OBDepict12SetAliasModeEb
libopenbabel.so.5:_ZN9OpenBabel8OBDepict12SetBondColorERKNSt7__cxx1112basic_stringIcSt11char_traitsIcESaIcEEE
libopenbabel.so.5:_ZN9OpenBabel8OBDepict12SetBondWidthEd
libopenbabel.so.5:_ZN9OpenBabel8OBDepict13AddAtomLabelsENS0_13AtomLabelTypeE
libopenbabel.so.5:_ZN9OpenBabel8OBDepict13SetBondLengthEd
libopenbabel.so.5:_ZN9OpenBabel8OBDepict13SetFontFamilyERKNSt7__cxx1112basic_stringIcSt11char_traitsIcESaIcEEE
libopenbabel.so.5:_ZN9OpenBabel8OBDepict14SetBondSpacingEd
libopenbabel.so.5:_ZN9OpenBabel8OBDepict9SetOptionEj
libopenbabel.so.5:_ZN9OpenBabel8OBDepictC1EPNS_9OBPainterE
libopenbabel.so.5:_ZN9OpenBabel8OBDepictC1EPNS_9OBPainterEbb
libopenbabel.so.5:_ZN9OpenBabel8OBDepictC2EPNS_9OBPainterE
libopenbabel.so.5:_ZN9OpenBabel8OBDepictC2EPNS_9OBPainterEbb
libopenbabel.so.5:_ZN9OpenBabel8OBDepictD1Ev
libopenbabel.so.5:_ZN9OpenBabel8OBDepictD2Ev
libopenbabel.so.5:_ZN9OpenBabel8OBFormat14FormatFromMIMEEPKc
libopenbabel.so.5:_ZN9OpenBabel8OBFormat14RegisterFormatEPKcS2_
libopenbabel.so.5:_ZN9OpenBabel8OBFormat22TargetClassDescriptionEv
libopenbabel.so.5:_ZN9OpenBabel8OBFormat7DisplayERNSt7__cxx1112basic_stringIcSt11char_traitsIcESaIcEEEPKcS9_
libopenbabel.so.5:_ZN9OpenBabel8OBFormat7GetTypeEv
libopenbabel.so.5:_ZN9OpenBabel8OBLocale13RestoreLocaleEv
libopenbabel.so.5:_ZN9OpenBabel8OBLocale9SetLocaleEv
libopenbabel.so.5:_ZN9OpenBabel8OBLocaleC1Ev
libopenbabel.so.5:_ZN9OpenBabel8OBLocaleC2Ev
libopenbabel.so.5:_ZN9OpenBabel8OBLocaleD1Ev
libopenbabel.so.5:_ZN9OpenBabel8OBLocaleD2Ev
libopenbabel.so.5:_ZN9OpenBabel8OBPlugin10GetTypeMapEPKc
libopenbabel.so.5:_ZN9OpenBabel8OBPlugin12BaseFindTypeERSt3mapIPKcPS0_NS_11CharPtrLessESaISt4pairIKS3_S4_EEES3_
libopenbabel.so.5:_ZN9OpenBabel8OBPlugin12ListAsStringB5cxx11EPKcS2_
libopenbabel.so.5:_ZN9OpenBabel8OBPlugin12ListAsVectorEPKcS2_RSt6vectorINSt7__cxx1112basic_stringIcSt11char_traitsIcESaIcEEESaIS9_EE
libopenbabel.so.5:_ZN9OpenBabel8OBPlugin14LoadAllPluginsEv
libopenbabel.so.5:_ZN9OpenBabel8OBPlugin4ListEPKcS2_PSo
libopenbabel.so.5:_ZN9OpenBabel8OBPlugin7DisplayERNSt7__cxx1112basic_stringIcSt11char_traitsIcESaIcEEEPKcS9_
libopenbabel.so.5:_ZN9OpenBabel8OBPlugin9FirstLineB5cxx11EPKc
libopenbabel.so.5:_ZN9OpenBabel8OBPlugin9GetPluginEPKcS2_
libopenbabel.so.5:_ZN9OpenBabel8OBRandom7NextIntEv
libopenbabel.so.5:_ZN9OpenBabel8OBRandom8TimeSeedEv
libopenbabel.so.5:_ZN9OpenBabel8OBRandom9NextFloatEv
libopenbabel.so.5:_ZN9OpenBabel8OBRandomC1Eb
libopenbabel.so.5:_ZN9OpenBabel8OBRandomC2Eb
libopenbabel.so.5:_ZN9OpenBabel8OBStereo10PermutatedERKSt6vectorImSaImEEii
libopenbabel.so.5:_ZN9OpenBabel8OBStereo11ContainsRefERKSt6vectorImSaImEEm
libopenbabel.so.5:_ZN9OpenBabel8OBStereo13NumInversionsERKSt6vectorImSaImEE
libopenbabel.so.5:_ZN9OpenBabel8OBStereo16ContainsSameRefsERKSt6vectorImSaImEES5_
libopenbabel.so.5:_ZN9OpenBabel8OBStereo9PermutateERSt6vectorImSaImEEii
libopenbabel.so.5:_ZN9OpenBabel8ReweightERSt6vectorIS0_IdSaIdEESaIS2_EES0_IiSaIiEEd
libopenbabel.so.5:_ZN9OpenBabel8SafeOpenERSt14basic_ifstreamIcSt11char_traitsIcEEPKc
libopenbabel.so.5:_ZN9OpenBabel8SafeOpenERSt14basic_ifstreamIcSt11char_traitsIcEERKNSt7__cxx1112basic_stringIcS2_SaIcEEE
libopenbabel.so.5:_ZN9OpenBabel8SafeOpenERSt14basic_ofstreamIcSt11char_traitsIcEEPKc
libopenbabel.so.5:_ZN9OpenBabel8SafeOpenERSt14basic_ofstreamIcSt11char_traitsIcEERKNSt7__cxx1112basic_stringIcS2_SaIcEEE
libopenbabel.so.5:_ZN9OpenBabel8TanimotoERKNS_8OBBitVecES2_
libopenbabel.so.5:_ZN9OpenBabel8intToStrB5cxx11Ei
libopenbabel.so.5:_ZN9OpenBabel8ptInRectENS_4RectENS_5PointE
libopenbabel.so.5:_ZN9OpenBabel8sproductERNS_15TSimpleMoleculeEiii
libopenbabel.so.5:_ZN9OpenBabel8tokenizeERSt6vectorINSt7__cxx1112basic_stringIcSt11char_traitsIcESaIcEEESaIS6_EEPKcSB_
libopenbabel.so.5:_ZN9OpenBabel8tokenizeERSt6vectorINSt7__cxx1112basic_stringIcSt11char_traitsIcESaIcEEESaIS6_EERS6_PKci
libopenbabel.so.5:_ZN9OpenBabel9AliasData10AddAliasesEPNS_5OBMolE
libopenbabel.so.5:_ZN9OpenBabel9AliasData14FromNameLookupERNS_5OBMolEj
libopenbabel.so.5:_ZN9OpenBabel9AliasData15AddExpandedAtomEi
libopenbabel.so.5:_ZN9OpenBabel9AliasData17RevertToAliasFormERNS_5OBMolE
libopenbabel.so.5:_ZN9OpenBabel9AliasData19DeleteExpandedAtomsERNS_5OBMolE
libopenbabel.so.5:_ZN9OpenBabel9AliasData6ExpandERNS_5OBMolEj
libopenbabel.so.5:_ZN9OpenBabel9AliasData8LoadFileERSt3mapINSt7__cxx1112basic_stringIcSt11char_traitsIcESaIcEEENS0_9AliasItemESt4lessIS7_ESaISt4pairIKS7_S8_EEE
libopenbabel.so.5:_ZN9OpenBabel9AliasData8LoadFileERSt6vectorISt4pairINSt7__cxx1112basic_stringIcSt11char_traitsIcESaIcEEESt10shared_ptrINS_15OBSmartsPatternEEESaISC_EE
libopenbabel.so.5:_ZN9OpenBabel9DoubleAddEPNS_10DoubleTypeEj
libopenbabel.so.5:_ZN9OpenBabel9OBBuilder11AddRingNbrsERNS_8OBBitVecEPNS_6OBAtomERNS_5OBMolE
libopenbabel.so.5:_ZN9OpenBabel9OBBuilder11GetFragmentEPNS_6OBAtomE
libopenbabel.so.5:_ZN9OpenBabel9OBBuilder11IsSpiroAtomEmRNS_5OBMolE
libopenbabel.so.5:_ZN9OpenBabel9OBBuilder12ConnectFragsERNS_5OBMolES2_St6vectorIiSaIiEES3_INS_7vector3ESaIS6_EES5_
libopenbabel.so.5:_ZN9OpenBabel9OBBuilder13FixRingStereoESt6vectorISt4pairImbESaIS3_EERNS_5OBMolERS1_ImSaImEE
libopenbabel.so.5:_ZN9OpenBabel9OBBuilder13LoadFragmentsEv
libopenbabel.so.5:_ZN9OpenBabel9OBBuilder14SwapWithVectorERNS_5OBMolEiiiRKNS_7vector3E
libopenbabel.so.5:_ZN9OpenBabel9OBBuilder16GetNewBondVectorEPNS_6OBAtomE
libopenbabel.so.5:_ZN9OpenBabel9OBBuilder16GetNewBondVectorEPNS_6OBAtomEd
libopenbabel.so.5:_ZN9OpenBabel9OBBuilder18CorrectStereoAtomsERNS_5OBMolEb
libopenbabel.so.5:_ZN9OpenBabel9OBBuilder18CorrectStereoBondsERNS_5OBMolE
libopenbabel.so.5:_ZN9OpenBabel9OBBuilder4SwapERNS_5OBMolEiiii
libopenbabel.so.5:_ZN9OpenBabel9OBBuilder5BuildERNS_5OBMolEb
libopenbabel.so.5:_ZN9OpenBabel9OBBuilder7AddNbrsERNS_8OBBitVecEPNS_6OBAtomE
libopenbabel.so.5:_ZN9OpenBabel9OBBuilder7ConnectERNS_5OBMolEiiRNS_7vector3Ei
libopenbabel.so.5:_ZN9OpenBabel9OBBuilder7ConnectERNS_5OBMolEiii
libopenbabel.so.5:_ZN9OpenBabel9OBBuilder9FlipSpiroERNS_5OBMolEi
libopenbabel.so.5:_ZN9OpenBabel9OBDOSData7SetDataEdRKSt6vectorIdSaIdEES5_S5_
libopenbabel.so.5:_ZN9OpenBabel9OBPhModel12CorrectForPHERNS_5OBMolEd
libopenbabel.so.5:_ZN9OpenBabel9OBPhModel23AssignSeedPartialChargeERNS_5OBMolE
libopenbabel.so.5:_ZN9OpenBabel9OBPhModel9ParseLineEPKc
libopenbabel.so.5:_ZN9OpenBabel9OBPhModelC1Ev
libopenbabel.so.5:_ZN9OpenBabel9OBPhModelC2Ev
libopenbabel.so.5:_ZN9OpenBabel9OBPhModelD0Ev
libopenbabel.so.5:_ZN9OpenBabel9OBPhModelD1Ev
libopenbabel.so.5:_ZN9OpenBabel9OBPhModelD2Ev
libopenbabel.so.5:_ZN9OpenBabel9OBResidue10InsertAtomEPNS_6OBAtomE
libopenbabel.so.5:_ZN9OpenBabel9OBResidue10RemoveAtomEPNS_6OBAtomE
libopenbabel.so.5:_ZN9OpenBabel9OBResidue10SetHetAtomEPNS_6OBAtomEb
libopenbabel.so.5:_ZN9OpenBabel9OBResidue11SetChainNumEj
libopenbabel.so.5:_ZN9OpenBabel9OBResidue12GetNumStringB5cxx11Ev
libopenbabel.so.5:_ZN9OpenBabel9OBResidue12SetSerialNumEPNS_6OBAtomEj
libopenbabel.so.5:_ZN9OpenBabel9OBResidue16SetInsertionCodeEc
libopenbabel.so.5:_ZN9OpenBabel9OBResidue5ClearEv
libopenbabel.so.5:_ZN9OpenBabel9OBResidue6GetNumEv
libopenbabel.so.5:_ZN9OpenBabel9OBResidue6SetIdxEj
libopenbabel.so.5:_ZN9OpenBabel9OBResidue6SetNumENSt7__cxx1112basic_stringIcSt11char_traitsIcESaIcEEE
libopenbabel.so.5:_ZN9OpenBabel9OBResidue6SetNumEj
libopenbabel.so.5:_ZN9OpenBabel9OBResidue7AddAtomEPNS_6OBAtomE
libopenbabel.so.5:_ZN9OpenBabel9OBResidue7SetNameERKNSt7__cxx1112basic_stringIcSt11char_traitsIcESaIcEEE
libopenbabel.so.5:_ZN9OpenBabel9OBResidue8NextAtomERN9__gnu_cxx17__normal_iteratorIPPNS_6OBAtomESt6vectorIS4_SaIS4_EEEE
libopenbabel.so.5:_ZN9OpenBabel9OBResidue8SetChainEc
libopenbabel.so.5:_ZN9OpenBabel9OBResidue9BeginAtomERN9__gnu_cxx17__normal_iteratorIPPNS_6OBAtomESt6vectorIS4_SaIS4_EEEE
libopenbabel.so.5:_ZN9OpenBabel9OBResidue9SetAtomIDEPNS_6OBAtomERKNSt7__cxx1112basic_stringIcSt11char_traitsIcESaIcEEE
libopenbabel.so.5:_ZN9OpenBabel9OBResidueC1ERKS0_
libopenbabel.so.5:_ZN9OpenBabel9OBResidueC1Ev
libopenbabel.so.5:_ZN9OpenBabel9OBResidueC2ERKS0_
libopenbabel.so.5:_ZN9OpenBabel9OBResidueC2Ev
libopenbabel.so.5:_ZN9OpenBabel9OBResidueD0Ev
libopenbabel.so.5:_ZN9OpenBabel9OBResidueD1Ev
libopenbabel.so.5:_ZN9OpenBabel9OBResidueD2Ev
libopenbabel.so.5:_ZN9OpenBabel9OBResidueaSERKS0_
libopenbabel.so.5:_ZN9OpenBabel9OBSSMatch5MatchERSt6vectorIS1_IiSaIiEESaIS3_EEi
libopenbabel.so.5:_ZN9OpenBabel9OBSSMatchC1ERNS_5OBMolEPKNS_7PatternE
libopenbabel.so.5:_ZN9OpenBabel9OBSSMatchC2ERNS_5OBMolEPKNS_7PatternE
libopenbabel.so.5:_ZN9OpenBabel9OBSSMatchD1Ev
libopenbabel.so.5:_ZN9OpenBabel9OBSSMatchD2Ev
libopenbabel.so.5:_ZN9OpenBabel9OBTorsion10AddTorsionEPNS_6OBAtomES2_S2_S2_
libopenbabel.so.5:_ZN9OpenBabel9OBTorsion10AddTorsionERNS_4quadIPNS_6OBAtomES3_S3_S3_EE
libopenbabel.so.5:_ZN9OpenBabel9OBTorsion10GetBondIdxEv
libopenbabel.so.5:_ZN9OpenBabel9OBTorsion11GetTorsionsEv
libopenbabel.so.5:_ZN9OpenBabel9OBTorsion13IsProtonRotorEv
libopenbabel.so.5:_ZN9OpenBabel9OBTorsion5ClearEv
libopenbabel.so.5:_ZN9OpenBabel9OBTorsion8GetAngleERdj
libopenbabel.so.5:_ZN9OpenBabel9OBTorsion8SetAngleEdj
libopenbabel.so.5:_ZN9OpenBabel9OBTorsionC1EPNS_6OBAtomES2_S2_S2_
libopenbabel.so.5:_ZN9OpenBabel9OBTorsionC1ERKS0_
libopenbabel.so.5:_ZN9OpenBabel9OBTorsionC2EPNS_6OBAtomES2_S2_S2_
libopenbabel.so.5:_ZN9OpenBabel9OBTorsionC2ERKS0_
libopenbabel.so.5:_ZN9OpenBabel9OBTorsionaSERKS0_
libopenbabel.so.5:_ZN9OpenBabel9SortAtomZERKSt4pairIPNS_6OBAtomEdES5_
libopenbabel.so.5:_ZN9OpenBabel9SortVVIntERKSt6vectorIiSaIiEES4_
libopenbabel.so.5:_ZN9OpenBabel9alternateEPNS_5OBMolESt6vectorIiSaIiEERS4_
libopenbabel.so.5:_ZN9OpenBabel9alternateESt6vectorIiSaIiEES2_S2_S2_S2_S2_RS2_ii
libopenbabel.so.5:_ZN9OpenBabel9matrix3x311SetupRotMatEddd
libopenbabel.so.5:_ZN9OpenBabel9matrix3x314randomRotationERNS_8OBRandomE
libopenbabel.so.5:_ZN9OpenBabel9matrix3x315PlaneReflectionERKNS_7vector3E
libopenbabel.so.5:_ZN9OpenBabel9matrix3x319RotAboutAxisByAngleERKNS_7vector3Ed
libopenbabel.so.5:_ZN9OpenBabel9matrix3x36SetRowEiRKNS_7vector3E
libopenbabel.so.5:_ZN9OpenBabel9matrix3x36jacobiEjPdS1_S1_
libopenbabel.so.5:_ZN9OpenBabel9matrix3x38FillOrthEdddddd
libopenbabel.so.5:_ZN9OpenBabel9matrix3x39SetColumnEiRKNS_7vector3E
libopenbabel.so.5:_ZN9OpenBabel9visitRingEPNS_5OBMolEPNS_6OBRingERSt6vectorIS3_SaIS3_EES7_
libopenbabel.so.5:_ZN9OpenBabelanERKNS_8OBBitVecES2_
libopenbabel.so.5:_ZN9OpenBabeleoERKNS_8OBBitVecES2_
libopenbabel.so.5:_ZN9OpenBabeleqERKNS_8OBBitVecES2_
libopenbabel.so.5:_ZN9OpenBabellsERSoRKNS_11OBFloatGridE
libopenbabel.so.5:_ZN9OpenBabellsERSoRKNS_7vector3E
libopenbabel.so.5:_ZN9OpenBabellsERSoRKNS_8OBBitVecE
libopenbabel.so.5:_ZN9OpenBabellsERSoRKNS_9matrix3x3E
libopenbabel.so.5:_ZN9OpenBabelltERKNS_8OBBitVecES2_
libopenbabel.so.5:_ZN9OpenBabelmiERKNS_8OBBitVecES2_
libopenbabel.so.5:_ZN9OpenBabelmlERKNS_9matrix3x3ERKNS_7vector3E
libopenbabel.so.5:_ZN9OpenBabelmlERKNS_9matrix3x3ES2_
libopenbabel.so.5:_ZN9OpenBabelorERKNS_8OBBitVecES2_
libopenbabel.so.5:_ZN9OpenBabelrsERSiRNS_11OBFloatGridE
libopenbabel.so.5:_ZN9OpenBabelrsERSiRNS_8OBBitVecE
libopenbabel.so.5:_ZNK9OpenBabel10OBGridData11GetMaxValueEv
libopenbabel.so.5:_ZNK9OpenBabel10OBGridData11GetMinValueEv
libopenbabel.so.5:_ZNK9OpenBabel10OBGridData12GetMaxVectorEv
libopenbabel.so.5:_ZNK9OpenBabel10OBGridData15GetOriginVectorEPd
libopenbabel.so.5:_ZNK9OpenBabel10OBGridData15GetOriginVectorEv
libopenbabel.so.5:_ZNK9OpenBabel10OBGridData15GetUnrestrictedEv
libopenbabel.so.5:_ZNK9OpenBabel10OBGridData16GetNumSymmetriesEv
libopenbabel.so.5:_ZNK9OpenBabel10OBGridData16GetNumberOfStepsEPi
libopenbabel.so.5:_ZNK9OpenBabel10OBGridData17GetNumberOfPointsERiS1_S1_
libopenbabel.so.5:_ZNK9OpenBabel10OBGridData17GetNumberOfPointsEv
libopenbabel.so.5:_ZNK9OpenBabel10OBGridData7GetAxesEPdS1_S1_
libopenbabel.so.5:_ZNK9OpenBabel10OBGridData7GetAxesERNS_7vector3ES2_S2_
libopenbabel.so.5:_ZNK9OpenBabel10OBGridData7GetUnitEv
libopenbabel.so.5:_ZNK9OpenBabel10OBGridData8GetValueENS_7vector3E
libopenbabel.so.5:_ZNK9OpenBabel10OBGridData8GetValueEiii
libopenbabel.so.5:_ZNK9OpenBabel10OBGridData8GetXAxisEv
libopenbabel.so.5:_ZNK9OpenBabel10OBGridData8GetYAxisEv
libopenbabel.so.5:_ZNK9OpenBabel10OBGridData8GetZAxisEv
libopenbabel.so.5:_ZNK9OpenBabel10OBGridData9GetValuesEv
libopenbabel.so.5:_ZNK9OpenBabel10OBUnitCell13GetCellMatrixEv
libopenbabel.so.5:_ZNK9OpenBabel10OBUnitCell13GetCellVolumeEv
libopenbabel.so.5:_ZNK9OpenBabel10OBUnitCell14GetCellVectorsEv
libopenbabel.so.5:_ZNK9OpenBabel10OBUnitCell14GetLatticeTypeEi
libopenbabel.so.5:_ZNK9OpenBabel10OBUnitCell14GetLatticeTypeEv
libopenbabel.so.5:_ZNK9OpenBabel10OBUnitCell14GetOrthoMatrixEv
libopenbabel.so.5:_ZNK9OpenBabel10OBUnitCell19GetFractionalMatrixEv
libopenbabel.so.5:_ZNK9OpenBabel10OBUnitCell19GetSpaceGroupNumberENSt7__cxx1112basic_stringIcSt11char_traitsIcESaIcEEE
libopenbabel.so.5:_ZNK9OpenBabel10OBUnitCell20GetOrientationMatrixEv
libopenbabel.so.5:_ZNK9OpenBabel10OBUnitCell21CartesianToFractionalENS_7vector3E
libopenbabel.so.5:_ZNK9OpenBabel10OBUnitCell21FractionalToCartesianENS_7vector3E
libopenbabel.so.5:_ZNK9OpenBabel10OBUnitCell23WrapCartesianCoordinateENS_7vector3E
libopenbabel.so.5:_ZNK9OpenBabel10OBUnitCell24WrapFractionalCoordinateENS_7vector3E
libopenbabel.so.5:_ZNK9OpenBabel10OBUnitCell4GetAEv
libopenbabel.so.5:_ZNK9OpenBabel10OBUnitCell4GetBEv
libopenbabel.so.5:_ZNK9OpenBabel10OBUnitCell4GetCEv
libopenbabel.so.5:_ZNK9OpenBabel10OBUnitCell7GetBetaEv
libopenbabel.so.5:_ZNK9OpenBabel10OBUnitCell8GetAlphaEv
libopenbabel.so.5:_ZNK9OpenBabel10OBUnitCell8GetGammaEv
libopenbabel.so.5:_ZNK9OpenBabel10OBUnitCell9GetOffsetEv
libopenbabel.so.5:_ZNK9OpenBabel10SVGPainter6IsGoodEv
libopenbabel.so.5:_ZNK9OpenBabel10SpaceGroup13NextTransformERSt20_List_const_iteratorIPNS_11transform3dEE
libopenbabel.so.5:_ZNK9OpenBabel10SpaceGroup14BeginTransformERSt20_List_const_iteratorIPNS_11transform3dEE
libopenbabel.so.5:_ZNK9OpenBabel10SpaceGroup7IsValidEv
libopenbabel.so.5:_ZNK9OpenBabel10SpaceGroup9TransformB5cxx11ERKNS_7vector3E
libopenbabel.so.5:_ZNK9OpenBabel10SpaceGroupeqERKS0_
libopenbabel.so.5:_ZNK9OpenBabel11transform3d16DescribeAsStringB5cxx11Ev
libopenbabel.so.5:_ZNK9OpenBabel11transform3d16DescribeAsValuesB5cxx11Ev
libopenbabel.so.5:_ZNK9OpenBabel11transform3dmlERKNS_7vector3E
libopenbabel.so.5:_ZNK9OpenBabel11transform3dmlERKS0_
libopenbabel.so.5:_ZNK9OpenBabel12OBChiralData12GetAtom4RefsENS_11atomreftypeE
libopenbabel.so.5:_ZNK9OpenBabel12OBChiralData7GetSizeENS_11atomreftypeE
libopenbabel.so.5:_ZNK9OpenBabel12OBConversion14GetOutputIndexEv
libopenbabel.so.5:_ZNK9OpenBabel12OBConversion8GetTitleEv
libopenbabel.so.5:_ZNK9OpenBabel13OBRotamerList17GetReferenceArrayEPh
libopenbabel.so.5:_ZNK9OpenBabel13OBRotamerList5CloneEPNS_6OBBaseE
libopenbabel.so.5:_ZNK9OpenBabel14OBSpectrophore11GetAccuracyEv
libopenbabel.so.5:_ZNK9OpenBabel14OBSpectrophore13GetResolutionEv
libopenbabel.so.5:_ZNK9OpenBabel14OBSpectrophore16GetNormalizationEv
libopenbabel.so.5:_ZNK9OpenBabel14OBSpectrophore9GetStereoEv
libopenbabel.so.5:_ZNK9OpenBabel15OBFFConstraints17GetConstraintTypeEi
libopenbabel.so.5:_ZNK9OpenBabel15OBFFConstraints18GetConstraintAtomAEi
libopenbabel.so.5:_ZNK9OpenBabel15OBFFConstraints18GetConstraintAtomBEi
libopenbabel.so.5:_ZNK9OpenBabel15OBFFConstraints18GetConstraintAtomCEi
libopenbabel.so.5:_ZNK9OpenBabel15OBFFConstraints18GetConstraintAtomDEi
libopenbabel.so.5:_ZNK9OpenBabel15OBFFConstraints18GetConstraintValueEi
libopenbabel.so.5:_ZNK9OpenBabel15OBFFConstraints4SizeEv
libopenbabel.so.5:_ZNK9OpenBabel15OBSmartsPattern5MatchERNS_5OBMolERSt6vectorIS3_IiSaIiEESaIS5_EENS0_9MatchTypeE
libopenbabel.so.5:_ZNK9OpenBabel15OBSmartsPattern8HasMatchERNS_5OBMolE
libopenbabel.so.5:_ZNK9OpenBabel15OBVibrationData22GetNumberOfFrequenciesEv
libopenbabel.so.5:_ZNK9OpenBabel16OBCisTransStereo11GetTransRefEm
libopenbabel.so.5:_ZNK9OpenBabel16OBCisTransStereo12IsOnSameAtomEmm
libopenbabel.so.5:_ZNK9OpenBabel16OBCisTransStereo16GetCisOrTransRefEmb
libopenbabel.so.5:_ZNK9OpenBabel16OBCisTransStereo5CloneEPNS_6OBBaseE
libopenbabel.so.5:_ZNK9OpenBabel16OBCisTransStereo5IsCisEmm
libopenbabel.so.5:_ZNK9OpenBabel16OBCisTransStereo6ConfigeqERKS1_
libopenbabel.so.5:_ZNK9OpenBabel16OBCisTransStereo7IsTransEmm
libopenbabel.so.5:_ZNK9OpenBabel16OBCisTransStereo7IsValidEv
libopenbabel.so.5:_ZNK9OpenBabel16OBCisTransStereo9GetCisRefEm
libopenbabel.so.5:_ZNK9OpenBabel16OBCisTransStereo9GetConfigENS_8OBStereo5ShapeE
libopenbabel.so.5:_ZNK9OpenBabel16OBCisTransStereo9GetConfigEmNS_8OBStereo5ShapeE
libopenbabel.so.5:_ZNK9OpenBabel16OBCisTransStereoeqERKS0_
libopenbabel.so.5:_ZNK9OpenBabel16OBMolAtomBFSIter12CurrentDepthEv
libopenbabel.so.5:_ZNK9OpenBabel16OBMolBondBFSIter12CurrentDepthEv
libopenbabel.so.5:_ZNK9OpenBabel17OBConformerSearch11IsUniqueKeyERKSt6vectorIS1_IiSaIiEESaIS3_EERKS3_
libopenbabel.so.5:_ZNK9OpenBabel19OBTetrahedralStereo5CloneEPNS_6OBBaseE
libopenbabel.so.5:_ZNK9OpenBabel19OBTetrahedralStereo6ConfigeqERKS1_
libopenbabel.so.5:_ZNK9OpenBabel19OBTetrahedralStereo7IsValidEv
libopenbabel.so.5:_ZNK9OpenBabel19OBTetrahedralStereo9GetConfigENS_8OBStereo7WindingENS1_4ViewE
libopenbabel.so.5:_ZNK9OpenBabel19OBTetrahedralStereo9GetConfigEmNS_8OBStereo7WindingENS1_4ViewE
libopenbabel.so.5:_ZNK9OpenBabel19OBTetrahedralStereoeqERKS0_
libopenbabel.so.5:_ZNK9OpenBabel20OBSquarePlanarStereo10GetCisRefsEm
libopenbabel.so.5:_ZNK9OpenBabel20OBSquarePlanarStereo11GetTransRefEm
libopenbabel.so.5:_ZNK9OpenBabel20OBSquarePlanarStereo5CloneEPNS_6OBBaseE
libopenbabel.so.5:_ZNK9OpenBabel20OBSquarePlanarStereo5IsCisEmm
libopenbabel.so.5:_ZNK9OpenBabel20OBSquarePlanarStereo6ConfigeqERKS1_
libopenbabel.so.5:_ZNK9OpenBabel20OBSquarePlanarStereo7IsTransEmm
libopenbabel.so.5:_ZNK9OpenBabel20OBSquarePlanarStereo7IsValidEv
libopenbabel.so.5:_ZNK9OpenBabel20OBSquarePlanarStereo9GetConfigENS_8OBStereo5ShapeE
libopenbabel.so.5:_ZNK9OpenBabel20OBSquarePlanarStereo9GetConfigEmNS_8OBStereo5ShapeE
libopenbabel.so.5:_ZNK9OpenBabel20OBSquarePlanarStereoeqERKS0_
libopenbabel.so.5:_ZNK9OpenBabel5OBMol10GetResidueEi
libopenbabel.so.5:_ZNK9OpenBabel5OBMol11GetAtomByIdEm
libopenbabel.so.5:_ZNK9OpenBabel5OBMol11GetBondByIdEm
libopenbabel.so.5:_ZNK9OpenBabel5OBMol12GetFirstAtomEv
libopenbabel.so.5:_ZNK9OpenBabel5OBMol7GetAtomEi
libopenbabel.so.5:_ZNK9OpenBabel5OBMol7GetBondEPNS_6OBAtomES2_
libopenbabel.so.5:_ZNK9OpenBabel5OBMol7GetBondEi
libopenbabel.so.5:_ZNK9OpenBabel5OBMol7GetBondEii
libopenbabel.so.5:_ZNK9OpenBabel5OBMol8GetTitleEb
libopenbabel.so.5:_ZNK9OpenBabel6OBAtom10IsAromaticEv
libopenbabel.so.5:_ZNK9OpenBabel6OBAtom12GetExactMassEv
libopenbabel.so.5:_ZNK9OpenBabel6OBAtom12IsInRingSizeEi
libopenbabel.so.5:_ZNK9OpenBabel6OBAtom13GetAtomicMassEv
libopenbabel.so.5:_ZNK9OpenBabel6OBAtom13GetHvyValenceEv
libopenbabel.so.5:_ZNK9OpenBabel6OBAtom14CountRingBondsEv
libopenbabel.so.5:_ZNK9OpenBabel6OBAtom16CountFreeOxygensEv
libopenbabel.so.5:_ZNK9OpenBabel6OBAtom16CountFreeSulfursEv
libopenbabel.so.5:_ZNK9OpenBabel6OBAtom16GetHeteroValenceEv
libopenbabel.so.5:_ZNK9OpenBabel6OBAtom16MemberOfRingSizeEv
libopenbabel.so.5:_ZNK9OpenBabel6OBAtom17MemberOfRingCountEv
libopenbabel.so.5:_ZNK9OpenBabel6OBAtom18GetImplicitValenceEv
libopenbabel.so.5:_ZNK9OpenBabel6OBAtom19LewisAcidBaseCountsEv
libopenbabel.so.5:_ZNK9OpenBabel6OBAtom21ExplicitHydrogenCountEb
libopenbabel.so.5:_ZNK9OpenBabel6OBAtom21ImplicitHydrogenCountEv
libopenbabel.so.5:_ZNK9OpenBabel6OBAtom5BOSumEv
libopenbabel.so.5:_ZNK9OpenBabel6OBAtom6GetHybEv
libopenbabel.so.5:_ZNK9OpenBabel6OBAtom6KBOSumEv
libopenbabel.so.5:_ZNK9OpenBabel6OBAtom8IsInRingEv
libopenbabel.so.5:_ZNK9OpenBabel6OBAtom9GetVectorEv
libopenbabel.so.5:_ZNK9OpenBabel6OBBond10IsAromaticEv
libopenbabel.so.5:_ZNK9OpenBabel6OBBond14GetEquibLengthEv
libopenbabel.so.5:_ZNK9OpenBabel6OBBond16FindSmallestRingEv
libopenbabel.so.5:_ZNK9OpenBabel6OBBond8IsInRingEv
libopenbabel.so.5:_ZNK9OpenBabel6OBBond9GetLengthEv
libopenbabel.so.5:_ZNK9OpenBabel7OBError7messageB5cxx11Ev
libopenbabel.so.5:_ZNK9OpenBabel7OBErroreqERKS0_
libopenbabel.so.5:_ZNK9OpenBabel7vector315CanBeNormalizedEv
libopenbabel.so.5:_ZNK9OpenBabel7vector317createOrthoVectorERS0_
libopenbabel.so.5:_ZNK9OpenBabel7vector38IsApproxERKS0_RKd
libopenbabel.so.5:_ZNK9OpenBabel7vector3eqERKS0_
libopenbabel.so.5:_ZNK9OpenBabel7vector3ixEj
libopenbabel.so.5:_ZNK9OpenBabel8OBBitVec7IsEmptyEv
libopenbabel.so.5:_ZNK9OpenBabel8OBBitVec7NextBitEi
libopenbabel.so.5:_ZNK9OpenBabel8OBBitVec8ToVecIntERSt6vectorIiSaIiEE
libopenbabel.so.5:_ZNK9OpenBabel8OBBitVec9CountBitsEv
libopenbabel.so.5:_ZNK9OpenBabel8OBDepict10GetOptionsEv
libopenbabel.so.5:_ZNK9OpenBabel8OBDepict11GetFontSizeEb
libopenbabel.so.5:_ZNK9OpenBabel8OBDepict11GetPenWidthEv
libopenbabel.so.5:_ZNK9OpenBabel8OBDepict12GetBondWidthEv
libopenbabel.so.5:_ZNK9OpenBabel8OBDepict13GetBondLengthEv
libopenbabel.so.5:_ZNK9OpenBabel8OBDepict13GetFontFamilyB5cxx11Ev
libopenbabel.so.5:_ZNK9OpenBabel8OBDepict14GetBondSpacingEv
libopenbabel.so.5:_ZNK9OpenBabel9AliasData8GetAliasB5cxx11Eb
libopenbabel.so.5:_ZNK9OpenBabel9OBResidue11GetChainNumEv
libopenbabel.so.5:_ZNK9OpenBabel9OBResidue11GetNumAtomsEv
libopenbabel.so.5:_ZNK9OpenBabel9OBResidue12GetSerialNumEPNS_6OBAtomE
libopenbabel.so.5:_ZNK9OpenBabel9OBResidue13IsResidueTypeEi
libopenbabel.so.5:_ZNK9OpenBabel9OBResidue15GetAtomPropertyEPNS_6OBAtomEi
libopenbabel.so.5:_ZNK9OpenBabel9OBResidue16GetInsertionCodeEv
libopenbabel.so.5:_ZNK9OpenBabel9OBResidue18GetResiduePropertyEi
libopenbabel.so.5:_ZNK9OpenBabel9OBResidue20GetAminoAcidPropertyEi
libopenbabel.so.5:_ZNK9OpenBabel9OBResidue6GetIdxEv
libopenbabel.so.5:_ZNK9OpenBabel9OBResidue7GetNameB5cxx11Ev
libopenbabel.so.5:_ZNK9OpenBabel9OBResidue8GetAtomsEv
libopenbabel.so.5:_ZNK9OpenBabel9OBResidue8GetBondsEb
libopenbabel.so.5:_ZNK9OpenBabel9OBResidue8GetChainEv
libopenbabel.so.5:_ZNK9OpenBabel9OBResidue9GetAtomIDB5cxx11EPNS_6OBAtomE
libopenbabel.so.5:_ZNK9OpenBabel9OBResidue9GetResKeyEv
libopenbabel.so.5:_ZNK9OpenBabel9OBResidue9IsHetAtomEPNS_6OBAtomE
libopenbabel.so.5:_ZNK9OpenBabel9matrix3x310isDiagonalEv
libopenbabel.so.5:_ZNK9OpenBabel9matrix3x311determinantEv
libopenbabel.so.5:_ZNK9OpenBabel9matrix3x311isSymmetricEv
libopenbabel.so.5:_ZNK9OpenBabel9matrix3x312isUnitMatrixEv
libopenbabel.so.5:_ZNK9OpenBabel9matrix3x327findEigenvectorsIfSymmetricERNS_7vector3E
libopenbabel.so.5:_ZNK9OpenBabel9matrix3x36GetRowEj
libopenbabel.so.5:_ZNK9OpenBabel9matrix3x37inverseEv
libopenbabel.so.5:_ZNK9OpenBabel9matrix3x39GetColumnEj
libopenbabel.so.5:_ZNK9OpenBabel9matrix3x39transposeEv
libopenbabel.so.5:_ZStlsRSoRKN9OpenBabel16OBCisTransStereo6ConfigE
libopenbabel.so.5:_ZStlsRSoRKN9OpenBabel16OBCisTransStereoE
libopenbabel.so.5:_ZStlsRSoRKN9OpenBabel19OBTetrahedralStereo6ConfigE
libopenbabel.so.5:_ZStlsRSoRKN9OpenBabel19OBTetrahedralStereoE
libopenbabel.so.5:_ZStlsRSoRKN9OpenBabel20OBSquarePlanarStereo6ConfigE
libopenbabel.so.5:_ZStlsRSoRKN9OpenBabel20OBSquarePlanarStereoE
libopenbabel.so.5:calc_rms
libopenbabel.so.5:get_rmat
libopenbabel.so.5:ob_make_rmat
libopenbabel.so.5:qtrfit
libopenbabel.so.5:rotate_coords
libopenbabel.so.5:superimpose
